
Asm4.elf:     file format elf32-littlearm

Sections:
Idx Name          Size      VMA       LMA       File off  Algn
  0 .isr_vector   00000194  08000000  08000000  00010000  2**0
                  CONTENTS, ALLOC, LOAD, READONLY, DATA
  1 .text         00001b2c  08000194  08000194  00010194  2**2
                  CONTENTS, ALLOC, LOAD, READONLY, CODE
  2 .rodata       00000000  08001cc0  08001cc0  00020024  2**0
                  CONTENTS, ALLOC, LOAD, DATA
  3 .ARM.extab    00000000  08001cc0  08001cc0  00020024  2**0
                  CONTENTS
  4 .ARM          00000000  08001cc0  08001cc0  00020024  2**0
                  CONTENTS
  5 .preinit_array 00000000  08001cc0  08001cc0  00020024  2**0
                  CONTENTS, ALLOC, LOAD, DATA
  6 .init_array   00000004  08001cc0  08001cc0  00011cc0  2**2
                  CONTENTS, ALLOC, LOAD, DATA
  7 .fini_array   00000004  08001cc4  08001cc4  00011cc4  2**2
                  CONTENTS, ALLOC, LOAD, DATA
  8 .data         00000024  20000000  08001cc8  00020000  2**2
                  CONTENTS, ALLOC, LOAD, DATA
  9 .bss          000001c0  20000024  08001cec  00020024  2**2
                  ALLOC
 10 ._user_heap_stack 00000604  200001e4  08001cec  000201e4  2**0
                  ALLOC
 11 .ARM.attributes 00000030  00000000  00000000  00020024  2**0
                  CONTENTS, READONLY
 12 .debug_info   00005975  00000000  00000000  00020054  2**0
                  CONTENTS, READONLY, DEBUGGING, OCTETS
 13 .debug_abbrev 00000e47  00000000  00000000  000259c9  2**0
                  CONTENTS, READONLY, DEBUGGING, OCTETS
 14 .debug_aranges 00000808  00000000  00000000  00026810  2**3
                  CONTENTS, READONLY, DEBUGGING, OCTETS
 15 .debug_ranges 00000780  00000000  00000000  00027018  2**3
                  CONTENTS, READONLY, DEBUGGING, OCTETS
 16 .debug_macro  0000ee67  00000000  00000000  00027798  2**0
                  CONTENTS, READONLY, DEBUGGING, OCTETS
 17 .debug_line   00003cb9  00000000  00000000  000365ff  2**0
                  CONTENTS, READONLY, DEBUGGING, OCTETS
 18 .debug_str    00046124  00000000  00000000  0003a2b8  2**0
                  CONTENTS, READONLY, DEBUGGING, OCTETS
 19 .comment      000000ce  00000000  00000000  000803dc  2**0
                  CONTENTS, READONLY
 20 .debug_frame  00002498  00000000  00000000  000804ac  2**2
                  CONTENTS, READONLY, DEBUGGING, OCTETS

Disassembly of section .text:

08000194 <__do_global_dtors_aux>:
 8000194:	b510      	push	{r4, lr}
 8000196:	4c05      	ldr	r4, [pc, #20]	; (80001ac <__do_global_dtors_aux+0x18>)
 8000198:	7823      	ldrb	r3, [r4, #0]
 800019a:	b933      	cbnz	r3, 80001aa <__do_global_dtors_aux+0x16>
 800019c:	4b04      	ldr	r3, [pc, #16]	; (80001b0 <__do_global_dtors_aux+0x1c>)
 800019e:	b113      	cbz	r3, 80001a6 <__do_global_dtors_aux+0x12>
 80001a0:	4804      	ldr	r0, [pc, #16]	; (80001b4 <__do_global_dtors_aux+0x20>)
 80001a2:	f3af 8000 	nop.w
 80001a6:	2301      	movs	r3, #1
 80001a8:	7023      	strb	r3, [r4, #0]
 80001aa:	bd10      	pop	{r4, pc}
 80001ac:	20000024 	.word	0x20000024
 80001b0:	00000000 	.word	0x00000000
 80001b4:	08001ca8 	.word	0x08001ca8

080001b8 <frame_dummy>:
 80001b8:	b508      	push	{r3, lr}
 80001ba:	4b03      	ldr	r3, [pc, #12]	; (80001c8 <frame_dummy+0x10>)
 80001bc:	b11b      	cbz	r3, 80001c6 <frame_dummy+0xe>
 80001be:	4903      	ldr	r1, [pc, #12]	; (80001cc <frame_dummy+0x14>)
 80001c0:	4803      	ldr	r0, [pc, #12]	; (80001d0 <frame_dummy+0x18>)
 80001c2:	f3af 8000 	nop.w
 80001c6:	bd08      	pop	{r3, pc}
 80001c8:	00000000 	.word	0x00000000
 80001cc:	20000028 	.word	0x20000028
 80001d0:	08001ca8 	.word	0x08001ca8

080001d4 <__aeabi_dmul>:
 80001d4:	b570      	push	{r4, r5, r6, lr}
 80001d6:	f04f 0cff 	mov.w	ip, #255	; 0xff
 80001da:	f44c 6ce0 	orr.w	ip, ip, #1792	; 0x700
 80001de:	ea1c 5411 	ands.w	r4, ip, r1, lsr #20
 80001e2:	bf1d      	ittte	ne
 80001e4:	ea1c 5513 	andsne.w	r5, ip, r3, lsr #20
 80001e8:	ea94 0f0c 	teqne	r4, ip
 80001ec:	ea95 0f0c 	teqne	r5, ip
 80001f0:	f000 f8de 	bleq	80003b0 <__aeabi_dmul+0x1dc>
 80001f4:	442c      	add	r4, r5
 80001f6:	ea81 0603 	eor.w	r6, r1, r3
 80001fa:	ea21 514c 	bic.w	r1, r1, ip, lsl #21
 80001fe:	ea23 534c 	bic.w	r3, r3, ip, lsl #21
 8000202:	ea50 3501 	orrs.w	r5, r0, r1, lsl #12
 8000206:	bf18      	it	ne
 8000208:	ea52 3503 	orrsne.w	r5, r2, r3, lsl #12
 800020c:	f441 1180 	orr.w	r1, r1, #1048576	; 0x100000
 8000210:	f443 1380 	orr.w	r3, r3, #1048576	; 0x100000
 8000214:	d038      	beq.n	8000288 <__aeabi_dmul+0xb4>
 8000216:	fba0 ce02 	umull	ip, lr, r0, r2
 800021a:	f04f 0500 	mov.w	r5, #0
 800021e:	fbe1 e502 	umlal	lr, r5, r1, r2
 8000222:	f006 4200 	and.w	r2, r6, #2147483648	; 0x80000000
 8000226:	fbe0 e503 	umlal	lr, r5, r0, r3
 800022a:	f04f 0600 	mov.w	r6, #0
 800022e:	fbe1 5603 	umlal	r5, r6, r1, r3
 8000232:	f09c 0f00 	teq	ip, #0
 8000236:	bf18      	it	ne
 8000238:	f04e 0e01 	orrne.w	lr, lr, #1
 800023c:	f1a4 04ff 	sub.w	r4, r4, #255	; 0xff
 8000240:	f5b6 7f00 	cmp.w	r6, #512	; 0x200
 8000244:	f564 7440 	sbc.w	r4, r4, #768	; 0x300
 8000248:	d204      	bcs.n	8000254 <__aeabi_dmul+0x80>
 800024a:	ea5f 0e4e 	movs.w	lr, lr, lsl #1
 800024e:	416d      	adcs	r5, r5
 8000250:	eb46 0606 	adc.w	r6, r6, r6
 8000254:	ea42 21c6 	orr.w	r1, r2, r6, lsl #11
 8000258:	ea41 5155 	orr.w	r1, r1, r5, lsr #21
 800025c:	ea4f 20c5 	mov.w	r0, r5, lsl #11
 8000260:	ea40 505e 	orr.w	r0, r0, lr, lsr #21
 8000264:	ea4f 2ece 	mov.w	lr, lr, lsl #11
 8000268:	f1b4 0cfd 	subs.w	ip, r4, #253	; 0xfd
 800026c:	bf88      	it	hi
 800026e:	f5bc 6fe0 	cmphi.w	ip, #1792	; 0x700
 8000272:	d81e      	bhi.n	80002b2 <__aeabi_dmul+0xde>
 8000274:	f1be 4f00 	cmp.w	lr, #2147483648	; 0x80000000
 8000278:	bf08      	it	eq
 800027a:	ea5f 0e50 	movseq.w	lr, r0, lsr #1
 800027e:	f150 0000 	adcs.w	r0, r0, #0
 8000282:	eb41 5104 	adc.w	r1, r1, r4, lsl #20
 8000286:	bd70      	pop	{r4, r5, r6, pc}
 8000288:	f006 4600 	and.w	r6, r6, #2147483648	; 0x80000000
 800028c:	ea46 0101 	orr.w	r1, r6, r1
 8000290:	ea40 0002 	orr.w	r0, r0, r2
 8000294:	ea81 0103 	eor.w	r1, r1, r3
 8000298:	ebb4 045c 	subs.w	r4, r4, ip, lsr #1
 800029c:	bfc2      	ittt	gt
 800029e:	ebd4 050c 	rsbsgt	r5, r4, ip
 80002a2:	ea41 5104 	orrgt.w	r1, r1, r4, lsl #20
 80002a6:	bd70      	popgt	{r4, r5, r6, pc}
 80002a8:	f441 1180 	orr.w	r1, r1, #1048576	; 0x100000
 80002ac:	f04f 0e00 	mov.w	lr, #0
 80002b0:	3c01      	subs	r4, #1
 80002b2:	f300 80ab 	bgt.w	800040c <__aeabi_dmul+0x238>
 80002b6:	f114 0f36 	cmn.w	r4, #54	; 0x36
 80002ba:	bfde      	ittt	le
 80002bc:	2000      	movle	r0, #0
 80002be:	f001 4100 	andle.w	r1, r1, #2147483648	; 0x80000000
 80002c2:	bd70      	pople	{r4, r5, r6, pc}
 80002c4:	f1c4 0400 	rsb	r4, r4, #0
 80002c8:	3c20      	subs	r4, #32
 80002ca:	da35      	bge.n	8000338 <__aeabi_dmul+0x164>
 80002cc:	340c      	adds	r4, #12
 80002ce:	dc1b      	bgt.n	8000308 <__aeabi_dmul+0x134>
 80002d0:	f104 0414 	add.w	r4, r4, #20
 80002d4:	f1c4 0520 	rsb	r5, r4, #32
 80002d8:	fa00 f305 	lsl.w	r3, r0, r5
 80002dc:	fa20 f004 	lsr.w	r0, r0, r4
 80002e0:	fa01 f205 	lsl.w	r2, r1, r5
 80002e4:	ea40 0002 	orr.w	r0, r0, r2
 80002e8:	f001 4200 	and.w	r2, r1, #2147483648	; 0x80000000
 80002ec:	f021 4100 	bic.w	r1, r1, #2147483648	; 0x80000000
 80002f0:	eb10 70d3 	adds.w	r0, r0, r3, lsr #31
 80002f4:	fa21 f604 	lsr.w	r6, r1, r4
 80002f8:	eb42 0106 	adc.w	r1, r2, r6
 80002fc:	ea5e 0e43 	orrs.w	lr, lr, r3, lsl #1
 8000300:	bf08      	it	eq
 8000302:	ea20 70d3 	biceq.w	r0, r0, r3, lsr #31
 8000306:	bd70      	pop	{r4, r5, r6, pc}
 8000308:	f1c4 040c 	rsb	r4, r4, #12
 800030c:	f1c4 0520 	rsb	r5, r4, #32
 8000310:	fa00 f304 	lsl.w	r3, r0, r4
 8000314:	fa20 f005 	lsr.w	r0, r0, r5
 8000318:	fa01 f204 	lsl.w	r2, r1, r4
 800031c:	ea40 0002 	orr.w	r0, r0, r2
 8000320:	f001 4100 	and.w	r1, r1, #2147483648	; 0x80000000
 8000324:	eb10 70d3 	adds.w	r0, r0, r3, lsr #31
 8000328:	f141 0100 	adc.w	r1, r1, #0
 800032c:	ea5e 0e43 	orrs.w	lr, lr, r3, lsl #1
 8000330:	bf08      	it	eq
 8000332:	ea20 70d3 	biceq.w	r0, r0, r3, lsr #31
 8000336:	bd70      	pop	{r4, r5, r6, pc}
 8000338:	f1c4 0520 	rsb	r5, r4, #32
 800033c:	fa00 f205 	lsl.w	r2, r0, r5
 8000340:	ea4e 0e02 	orr.w	lr, lr, r2
 8000344:	fa20 f304 	lsr.w	r3, r0, r4
 8000348:	fa01 f205 	lsl.w	r2, r1, r5
 800034c:	ea43 0302 	orr.w	r3, r3, r2
 8000350:	fa21 f004 	lsr.w	r0, r1, r4
 8000354:	f001 4100 	and.w	r1, r1, #2147483648	; 0x80000000
 8000358:	fa21 f204 	lsr.w	r2, r1, r4
 800035c:	ea20 0002 	bic.w	r0, r0, r2
 8000360:	eb00 70d3 	add.w	r0, r0, r3, lsr #31
 8000364:	ea5e 0e43 	orrs.w	lr, lr, r3, lsl #1
 8000368:	bf08      	it	eq
 800036a:	ea20 70d3 	biceq.w	r0, r0, r3, lsr #31
 800036e:	bd70      	pop	{r4, r5, r6, pc}
 8000370:	f094 0f00 	teq	r4, #0
 8000374:	d10f      	bne.n	8000396 <__aeabi_dmul+0x1c2>
 8000376:	f001 4600 	and.w	r6, r1, #2147483648	; 0x80000000
 800037a:	0040      	lsls	r0, r0, #1
 800037c:	eb41 0101 	adc.w	r1, r1, r1
 8000380:	f411 1f80 	tst.w	r1, #1048576	; 0x100000
 8000384:	bf08      	it	eq
 8000386:	3c01      	subeq	r4, #1
 8000388:	d0f7      	beq.n	800037a <__aeabi_dmul+0x1a6>
 800038a:	ea41 0106 	orr.w	r1, r1, r6
 800038e:	f095 0f00 	teq	r5, #0
 8000392:	bf18      	it	ne
 8000394:	4770      	bxne	lr
 8000396:	f003 4600 	and.w	r6, r3, #2147483648	; 0x80000000
 800039a:	0052      	lsls	r2, r2, #1
 800039c:	eb43 0303 	adc.w	r3, r3, r3
 80003a0:	f413 1f80 	tst.w	r3, #1048576	; 0x100000
 80003a4:	bf08      	it	eq
 80003a6:	3d01      	subeq	r5, #1
 80003a8:	d0f7      	beq.n	800039a <__aeabi_dmul+0x1c6>
 80003aa:	ea43 0306 	orr.w	r3, r3, r6
 80003ae:	4770      	bx	lr
 80003b0:	ea94 0f0c 	teq	r4, ip
 80003b4:	ea0c 5513 	and.w	r5, ip, r3, lsr #20
 80003b8:	bf18      	it	ne
 80003ba:	ea95 0f0c 	teqne	r5, ip
 80003be:	d00c      	beq.n	80003da <__aeabi_dmul+0x206>
 80003c0:	ea50 0641 	orrs.w	r6, r0, r1, lsl #1
 80003c4:	bf18      	it	ne
 80003c6:	ea52 0643 	orrsne.w	r6, r2, r3, lsl #1
 80003ca:	d1d1      	bne.n	8000370 <__aeabi_dmul+0x19c>
 80003cc:	ea81 0103 	eor.w	r1, r1, r3
 80003d0:	f001 4100 	and.w	r1, r1, #2147483648	; 0x80000000
 80003d4:	f04f 0000 	mov.w	r0, #0
 80003d8:	bd70      	pop	{r4, r5, r6, pc}
 80003da:	ea50 0641 	orrs.w	r6, r0, r1, lsl #1
 80003de:	bf06      	itte	eq
 80003e0:	4610      	moveq	r0, r2
 80003e2:	4619      	moveq	r1, r3
 80003e4:	ea52 0643 	orrsne.w	r6, r2, r3, lsl #1
 80003e8:	d019      	beq.n	800041e <__aeabi_dmul+0x24a>
 80003ea:	ea94 0f0c 	teq	r4, ip
 80003ee:	d102      	bne.n	80003f6 <__aeabi_dmul+0x222>
 80003f0:	ea50 3601 	orrs.w	r6, r0, r1, lsl #12
 80003f4:	d113      	bne.n	800041e <__aeabi_dmul+0x24a>
 80003f6:	ea95 0f0c 	teq	r5, ip
 80003fa:	d105      	bne.n	8000408 <__aeabi_dmul+0x234>
 80003fc:	ea52 3603 	orrs.w	r6, r2, r3, lsl #12
 8000400:	bf1c      	itt	ne
 8000402:	4610      	movne	r0, r2
 8000404:	4619      	movne	r1, r3
 8000406:	d10a      	bne.n	800041e <__aeabi_dmul+0x24a>
 8000408:	ea81 0103 	eor.w	r1, r1, r3
 800040c:	f001 4100 	and.w	r1, r1, #2147483648	; 0x80000000
 8000410:	f041 41fe 	orr.w	r1, r1, #2130706432	; 0x7f000000
 8000414:	f441 0170 	orr.w	r1, r1, #15728640	; 0xf00000
 8000418:	f04f 0000 	mov.w	r0, #0
 800041c:	bd70      	pop	{r4, r5, r6, pc}
 800041e:	f041 41fe 	orr.w	r1, r1, #2130706432	; 0x7f000000
 8000422:	f441 0178 	orr.w	r1, r1, #16252928	; 0xf80000
 8000426:	bd70      	pop	{r4, r5, r6, pc}

08000428 <__aeabi_drsub>:
 8000428:	f081 4100 	eor.w	r1, r1, #2147483648	; 0x80000000
 800042c:	e002      	b.n	8000434 <__adddf3>
 800042e:	bf00      	nop

08000430 <__aeabi_dsub>:
 8000430:	f083 4300 	eor.w	r3, r3, #2147483648	; 0x80000000

08000434 <__adddf3>:
 8000434:	b530      	push	{r4, r5, lr}
 8000436:	ea4f 0441 	mov.w	r4, r1, lsl #1
 800043a:	ea4f 0543 	mov.w	r5, r3, lsl #1
 800043e:	ea94 0f05 	teq	r4, r5
 8000442:	bf08      	it	eq
 8000444:	ea90 0f02 	teqeq	r0, r2
 8000448:	bf1f      	itttt	ne
 800044a:	ea54 0c00 	orrsne.w	ip, r4, r0
 800044e:	ea55 0c02 	orrsne.w	ip, r5, r2
 8000452:	ea7f 5c64 	mvnsne.w	ip, r4, asr #21
 8000456:	ea7f 5c65 	mvnsne.w	ip, r5, asr #21
 800045a:	f000 80e2 	beq.w	8000622 <__adddf3+0x1ee>
 800045e:	ea4f 5454 	mov.w	r4, r4, lsr #21
 8000462:	ebd4 5555 	rsbs	r5, r4, r5, lsr #21
 8000466:	bfb8      	it	lt
 8000468:	426d      	neglt	r5, r5
 800046a:	dd0c      	ble.n	8000486 <__adddf3+0x52>
 800046c:	442c      	add	r4, r5
 800046e:	ea80 0202 	eor.w	r2, r0, r2
 8000472:	ea81 0303 	eor.w	r3, r1, r3
 8000476:	ea82 0000 	eor.w	r0, r2, r0
 800047a:	ea83 0101 	eor.w	r1, r3, r1
 800047e:	ea80 0202 	eor.w	r2, r0, r2
 8000482:	ea81 0303 	eor.w	r3, r1, r3
 8000486:	2d36      	cmp	r5, #54	; 0x36
 8000488:	bf88      	it	hi
 800048a:	bd30      	pophi	{r4, r5, pc}
 800048c:	f011 4f00 	tst.w	r1, #2147483648	; 0x80000000
 8000490:	ea4f 3101 	mov.w	r1, r1, lsl #12
 8000494:	f44f 1c80 	mov.w	ip, #1048576	; 0x100000
 8000498:	ea4c 3111 	orr.w	r1, ip, r1, lsr #12
 800049c:	d002      	beq.n	80004a4 <__adddf3+0x70>
 800049e:	4240      	negs	r0, r0
 80004a0:	eb61 0141 	sbc.w	r1, r1, r1, lsl #1
 80004a4:	f013 4f00 	tst.w	r3, #2147483648	; 0x80000000
 80004a8:	ea4f 3303 	mov.w	r3, r3, lsl #12
 80004ac:	ea4c 3313 	orr.w	r3, ip, r3, lsr #12
 80004b0:	d002      	beq.n	80004b8 <__adddf3+0x84>
 80004b2:	4252      	negs	r2, r2
 80004b4:	eb63 0343 	sbc.w	r3, r3, r3, lsl #1
 80004b8:	ea94 0f05 	teq	r4, r5
 80004bc:	f000 80a7 	beq.w	800060e <__adddf3+0x1da>
 80004c0:	f1a4 0401 	sub.w	r4, r4, #1
 80004c4:	f1d5 0e20 	rsbs	lr, r5, #32
 80004c8:	db0d      	blt.n	80004e6 <__adddf3+0xb2>
 80004ca:	fa02 fc0e 	lsl.w	ip, r2, lr
 80004ce:	fa22 f205 	lsr.w	r2, r2, r5
 80004d2:	1880      	adds	r0, r0, r2
 80004d4:	f141 0100 	adc.w	r1, r1, #0
 80004d8:	fa03 f20e 	lsl.w	r2, r3, lr
 80004dc:	1880      	adds	r0, r0, r2
 80004de:	fa43 f305 	asr.w	r3, r3, r5
 80004e2:	4159      	adcs	r1, r3
 80004e4:	e00e      	b.n	8000504 <__adddf3+0xd0>
 80004e6:	f1a5 0520 	sub.w	r5, r5, #32
 80004ea:	f10e 0e20 	add.w	lr, lr, #32
 80004ee:	2a01      	cmp	r2, #1
 80004f0:	fa03 fc0e 	lsl.w	ip, r3, lr
 80004f4:	bf28      	it	cs
 80004f6:	f04c 0c02 	orrcs.w	ip, ip, #2
 80004fa:	fa43 f305 	asr.w	r3, r3, r5
 80004fe:	18c0      	adds	r0, r0, r3
 8000500:	eb51 71e3 	adcs.w	r1, r1, r3, asr #31
 8000504:	f001 4500 	and.w	r5, r1, #2147483648	; 0x80000000
 8000508:	d507      	bpl.n	800051a <__adddf3+0xe6>
 800050a:	f04f 0e00 	mov.w	lr, #0
 800050e:	f1dc 0c00 	rsbs	ip, ip, #0
 8000512:	eb7e 0000 	sbcs.w	r0, lr, r0
 8000516:	eb6e 0101 	sbc.w	r1, lr, r1
 800051a:	f5b1 1f80 	cmp.w	r1, #1048576	; 0x100000
 800051e:	d31b      	bcc.n	8000558 <__adddf3+0x124>
 8000520:	f5b1 1f00 	cmp.w	r1, #2097152	; 0x200000
 8000524:	d30c      	bcc.n	8000540 <__adddf3+0x10c>
 8000526:	0849      	lsrs	r1, r1, #1
 8000528:	ea5f 0030 	movs.w	r0, r0, rrx
 800052c:	ea4f 0c3c 	mov.w	ip, ip, rrx
 8000530:	f104 0401 	add.w	r4, r4, #1
 8000534:	ea4f 5244 	mov.w	r2, r4, lsl #21
 8000538:	f512 0f80 	cmn.w	r2, #4194304	; 0x400000
 800053c:	f080 809a 	bcs.w	8000674 <__adddf3+0x240>
 8000540:	f1bc 4f00 	cmp.w	ip, #2147483648	; 0x80000000
 8000544:	bf08      	it	eq
 8000546:	ea5f 0c50 	movseq.w	ip, r0, lsr #1
 800054a:	f150 0000 	adcs.w	r0, r0, #0
 800054e:	eb41 5104 	adc.w	r1, r1, r4, lsl #20
 8000552:	ea41 0105 	orr.w	r1, r1, r5
 8000556:	bd30      	pop	{r4, r5, pc}
 8000558:	ea5f 0c4c 	movs.w	ip, ip, lsl #1
 800055c:	4140      	adcs	r0, r0
 800055e:	eb41 0101 	adc.w	r1, r1, r1
 8000562:	3c01      	subs	r4, #1
 8000564:	bf28      	it	cs
 8000566:	f5b1 1f80 	cmpcs.w	r1, #1048576	; 0x100000
 800056a:	d2e9      	bcs.n	8000540 <__adddf3+0x10c>
 800056c:	f091 0f00 	teq	r1, #0
 8000570:	bf04      	itt	eq
 8000572:	4601      	moveq	r1, r0
 8000574:	2000      	moveq	r0, #0
 8000576:	fab1 f381 	clz	r3, r1
 800057a:	bf08      	it	eq
 800057c:	3320      	addeq	r3, #32
 800057e:	f1a3 030b 	sub.w	r3, r3, #11
 8000582:	f1b3 0220 	subs.w	r2, r3, #32
 8000586:	da0c      	bge.n	80005a2 <__adddf3+0x16e>
 8000588:	320c      	adds	r2, #12
 800058a:	dd08      	ble.n	800059e <__adddf3+0x16a>
 800058c:	f102 0c14 	add.w	ip, r2, #20
 8000590:	f1c2 020c 	rsb	r2, r2, #12
 8000594:	fa01 f00c 	lsl.w	r0, r1, ip
 8000598:	fa21 f102 	lsr.w	r1, r1, r2
 800059c:	e00c      	b.n	80005b8 <__adddf3+0x184>
 800059e:	f102 0214 	add.w	r2, r2, #20
 80005a2:	bfd8      	it	le
 80005a4:	f1c2 0c20 	rsble	ip, r2, #32
 80005a8:	fa01 f102 	lsl.w	r1, r1, r2
 80005ac:	fa20 fc0c 	lsr.w	ip, r0, ip
 80005b0:	bfdc      	itt	le
 80005b2:	ea41 010c 	orrle.w	r1, r1, ip
 80005b6:	4090      	lslle	r0, r2
 80005b8:	1ae4      	subs	r4, r4, r3
 80005ba:	bfa2      	ittt	ge
 80005bc:	eb01 5104 	addge.w	r1, r1, r4, lsl #20
 80005c0:	4329      	orrge	r1, r5
 80005c2:	bd30      	popge	{r4, r5, pc}
 80005c4:	ea6f 0404 	mvn.w	r4, r4
 80005c8:	3c1f      	subs	r4, #31
 80005ca:	da1c      	bge.n	8000606 <__adddf3+0x1d2>
 80005cc:	340c      	adds	r4, #12
 80005ce:	dc0e      	bgt.n	80005ee <__adddf3+0x1ba>
 80005d0:	f104 0414 	add.w	r4, r4, #20
 80005d4:	f1c4 0220 	rsb	r2, r4, #32
 80005d8:	fa20 f004 	lsr.w	r0, r0, r4
 80005dc:	fa01 f302 	lsl.w	r3, r1, r2
 80005e0:	ea40 0003 	orr.w	r0, r0, r3
 80005e4:	fa21 f304 	lsr.w	r3, r1, r4
 80005e8:	ea45 0103 	orr.w	r1, r5, r3
 80005ec:	bd30      	pop	{r4, r5, pc}
 80005ee:	f1c4 040c 	rsb	r4, r4, #12
 80005f2:	f1c4 0220 	rsb	r2, r4, #32
 80005f6:	fa20 f002 	lsr.w	r0, r0, r2
 80005fa:	fa01 f304 	lsl.w	r3, r1, r4
 80005fe:	ea40 0003 	orr.w	r0, r0, r3
 8000602:	4629      	mov	r1, r5
 8000604:	bd30      	pop	{r4, r5, pc}
 8000606:	fa21 f004 	lsr.w	r0, r1, r4
 800060a:	4629      	mov	r1, r5
 800060c:	bd30      	pop	{r4, r5, pc}
 800060e:	f094 0f00 	teq	r4, #0
 8000612:	f483 1380 	eor.w	r3, r3, #1048576	; 0x100000
 8000616:	bf06      	itte	eq
 8000618:	f481 1180 	eoreq.w	r1, r1, #1048576	; 0x100000
 800061c:	3401      	addeq	r4, #1
 800061e:	3d01      	subne	r5, #1
 8000620:	e74e      	b.n	80004c0 <__adddf3+0x8c>
 8000622:	ea7f 5c64 	mvns.w	ip, r4, asr #21
 8000626:	bf18      	it	ne
 8000628:	ea7f 5c65 	mvnsne.w	ip, r5, asr #21
 800062c:	d029      	beq.n	8000682 <__adddf3+0x24e>
 800062e:	ea94 0f05 	teq	r4, r5
 8000632:	bf08      	it	eq
 8000634:	ea90 0f02 	teqeq	r0, r2
 8000638:	d005      	beq.n	8000646 <__adddf3+0x212>
 800063a:	ea54 0c00 	orrs.w	ip, r4, r0
 800063e:	bf04      	itt	eq
 8000640:	4619      	moveq	r1, r3
 8000642:	4610      	moveq	r0, r2
 8000644:	bd30      	pop	{r4, r5, pc}
 8000646:	ea91 0f03 	teq	r1, r3
 800064a:	bf1e      	ittt	ne
 800064c:	2100      	movne	r1, #0
 800064e:	2000      	movne	r0, #0
 8000650:	bd30      	popne	{r4, r5, pc}
 8000652:	ea5f 5c54 	movs.w	ip, r4, lsr #21
 8000656:	d105      	bne.n	8000664 <__adddf3+0x230>
 8000658:	0040      	lsls	r0, r0, #1
 800065a:	4149      	adcs	r1, r1
 800065c:	bf28      	it	cs
 800065e:	f041 4100 	orrcs.w	r1, r1, #2147483648	; 0x80000000
 8000662:	bd30      	pop	{r4, r5, pc}
 8000664:	f514 0480 	adds.w	r4, r4, #4194304	; 0x400000
 8000668:	bf3c      	itt	cc
 800066a:	f501 1180 	addcc.w	r1, r1, #1048576	; 0x100000
 800066e:	bd30      	popcc	{r4, r5, pc}
 8000670:	f001 4500 	and.w	r5, r1, #2147483648	; 0x80000000
 8000674:	f045 41fe 	orr.w	r1, r5, #2130706432	; 0x7f000000
 8000678:	f441 0170 	orr.w	r1, r1, #15728640	; 0xf00000
 800067c:	f04f 0000 	mov.w	r0, #0
 8000680:	bd30      	pop	{r4, r5, pc}
 8000682:	ea7f 5c64 	mvns.w	ip, r4, asr #21
 8000686:	bf1a      	itte	ne
 8000688:	4619      	movne	r1, r3
 800068a:	4610      	movne	r0, r2
 800068c:	ea7f 5c65 	mvnseq.w	ip, r5, asr #21
 8000690:	bf1c      	itt	ne
 8000692:	460b      	movne	r3, r1
 8000694:	4602      	movne	r2, r0
 8000696:	ea50 3401 	orrs.w	r4, r0, r1, lsl #12
 800069a:	bf06      	itte	eq
 800069c:	ea52 3503 	orrseq.w	r5, r2, r3, lsl #12
 80006a0:	ea91 0f03 	teqeq	r1, r3
 80006a4:	f441 2100 	orrne.w	r1, r1, #524288	; 0x80000
 80006a8:	bd30      	pop	{r4, r5, pc}
 80006aa:	bf00      	nop

080006ac <__aeabi_ui2d>:
 80006ac:	f090 0f00 	teq	r0, #0
 80006b0:	bf04      	itt	eq
 80006b2:	2100      	moveq	r1, #0
 80006b4:	4770      	bxeq	lr
 80006b6:	b530      	push	{r4, r5, lr}
 80006b8:	f44f 6480 	mov.w	r4, #1024	; 0x400
 80006bc:	f104 0432 	add.w	r4, r4, #50	; 0x32
 80006c0:	f04f 0500 	mov.w	r5, #0
 80006c4:	f04f 0100 	mov.w	r1, #0
 80006c8:	e750      	b.n	800056c <__adddf3+0x138>
 80006ca:	bf00      	nop

080006cc <__aeabi_i2d>:
 80006cc:	f090 0f00 	teq	r0, #0
 80006d0:	bf04      	itt	eq
 80006d2:	2100      	moveq	r1, #0
 80006d4:	4770      	bxeq	lr
 80006d6:	b530      	push	{r4, r5, lr}
 80006d8:	f44f 6480 	mov.w	r4, #1024	; 0x400
 80006dc:	f104 0432 	add.w	r4, r4, #50	; 0x32
 80006e0:	f010 4500 	ands.w	r5, r0, #2147483648	; 0x80000000
 80006e4:	bf48      	it	mi
 80006e6:	4240      	negmi	r0, r0
 80006e8:	f04f 0100 	mov.w	r1, #0
 80006ec:	e73e      	b.n	800056c <__adddf3+0x138>
 80006ee:	bf00      	nop

080006f0 <__aeabi_f2d>:
 80006f0:	0042      	lsls	r2, r0, #1
 80006f2:	ea4f 01e2 	mov.w	r1, r2, asr #3
 80006f6:	ea4f 0131 	mov.w	r1, r1, rrx
 80006fa:	ea4f 7002 	mov.w	r0, r2, lsl #28
 80006fe:	bf1f      	itttt	ne
 8000700:	f012 437f 	andsne.w	r3, r2, #4278190080	; 0xff000000
 8000704:	f093 4f7f 	teqne	r3, #4278190080	; 0xff000000
 8000708:	f081 5160 	eorne.w	r1, r1, #939524096	; 0x38000000
 800070c:	4770      	bxne	lr
 800070e:	f032 427f 	bics.w	r2, r2, #4278190080	; 0xff000000
 8000712:	bf08      	it	eq
 8000714:	4770      	bxeq	lr
 8000716:	f093 4f7f 	teq	r3, #4278190080	; 0xff000000
 800071a:	bf04      	itt	eq
 800071c:	f441 2100 	orreq.w	r1, r1, #524288	; 0x80000
 8000720:	4770      	bxeq	lr
 8000722:	b530      	push	{r4, r5, lr}
 8000724:	f44f 7460 	mov.w	r4, #896	; 0x380
 8000728:	f001 4500 	and.w	r5, r1, #2147483648	; 0x80000000
 800072c:	f021 4100 	bic.w	r1, r1, #2147483648	; 0x80000000
 8000730:	e71c      	b.n	800056c <__adddf3+0x138>
 8000732:	bf00      	nop

08000734 <__aeabi_ul2d>:
 8000734:	ea50 0201 	orrs.w	r2, r0, r1
 8000738:	bf08      	it	eq
 800073a:	4770      	bxeq	lr
 800073c:	b530      	push	{r4, r5, lr}
 800073e:	f04f 0500 	mov.w	r5, #0
 8000742:	e00a      	b.n	800075a <__aeabi_l2d+0x16>

08000744 <__aeabi_l2d>:
 8000744:	ea50 0201 	orrs.w	r2, r0, r1
 8000748:	bf08      	it	eq
 800074a:	4770      	bxeq	lr
 800074c:	b530      	push	{r4, r5, lr}
 800074e:	f011 4500 	ands.w	r5, r1, #2147483648	; 0x80000000
 8000752:	d502      	bpl.n	800075a <__aeabi_l2d+0x16>
 8000754:	4240      	negs	r0, r0
 8000756:	eb61 0141 	sbc.w	r1, r1, r1, lsl #1
 800075a:	f44f 6480 	mov.w	r4, #1024	; 0x400
 800075e:	f104 0432 	add.w	r4, r4, #50	; 0x32
 8000762:	ea5f 5c91 	movs.w	ip, r1, lsr #22
 8000766:	f43f aed8 	beq.w	800051a <__adddf3+0xe6>
 800076a:	f04f 0203 	mov.w	r2, #3
 800076e:	ea5f 0cdc 	movs.w	ip, ip, lsr #3
 8000772:	bf18      	it	ne
 8000774:	3203      	addne	r2, #3
 8000776:	ea5f 0cdc 	movs.w	ip, ip, lsr #3
 800077a:	bf18      	it	ne
 800077c:	3203      	addne	r2, #3
 800077e:	eb02 02dc 	add.w	r2, r2, ip, lsr #3
 8000782:	f1c2 0320 	rsb	r3, r2, #32
 8000786:	fa00 fc03 	lsl.w	ip, r0, r3
 800078a:	fa20 f002 	lsr.w	r0, r0, r2
 800078e:	fa01 fe03 	lsl.w	lr, r1, r3
 8000792:	ea40 000e 	orr.w	r0, r0, lr
 8000796:	fa21 f102 	lsr.w	r1, r1, r2
 800079a:	4414      	add	r4, r2
 800079c:	e6bd      	b.n	800051a <__adddf3+0xe6>
 800079e:	bf00      	nop

080007a0 <__aeabi_d2f>:
 80007a0:	ea4f 0241 	mov.w	r2, r1, lsl #1
 80007a4:	f1b2 43e0 	subs.w	r3, r2, #1879048192	; 0x70000000
 80007a8:	bf24      	itt	cs
 80007aa:	f5b3 1c00 	subscs.w	ip, r3, #2097152	; 0x200000
 80007ae:	f1dc 5cfe 	rsbscs	ip, ip, #532676608	; 0x1fc00000
 80007b2:	d90d      	bls.n	80007d0 <__aeabi_d2f+0x30>
 80007b4:	f001 4c00 	and.w	ip, r1, #2147483648	; 0x80000000
 80007b8:	ea4f 02c0 	mov.w	r2, r0, lsl #3
 80007bc:	ea4c 7050 	orr.w	r0, ip, r0, lsr #29
 80007c0:	f1b2 4f00 	cmp.w	r2, #2147483648	; 0x80000000
 80007c4:	eb40 0083 	adc.w	r0, r0, r3, lsl #2
 80007c8:	bf08      	it	eq
 80007ca:	f020 0001 	biceq.w	r0, r0, #1
 80007ce:	4770      	bx	lr
 80007d0:	f011 4f80 	tst.w	r1, #1073741824	; 0x40000000
 80007d4:	d121      	bne.n	800081a <__aeabi_d2f+0x7a>
 80007d6:	f113 7238 	adds.w	r2, r3, #48234496	; 0x2e00000
 80007da:	bfbc      	itt	lt
 80007dc:	f001 4000 	andlt.w	r0, r1, #2147483648	; 0x80000000
 80007e0:	4770      	bxlt	lr
 80007e2:	f441 1180 	orr.w	r1, r1, #1048576	; 0x100000
 80007e6:	ea4f 5252 	mov.w	r2, r2, lsr #21
 80007ea:	f1c2 0218 	rsb	r2, r2, #24
 80007ee:	f1c2 0c20 	rsb	ip, r2, #32
 80007f2:	fa10 f30c 	lsls.w	r3, r0, ip
 80007f6:	fa20 f002 	lsr.w	r0, r0, r2
 80007fa:	bf18      	it	ne
 80007fc:	f040 0001 	orrne.w	r0, r0, #1
 8000800:	ea4f 23c1 	mov.w	r3, r1, lsl #11
 8000804:	ea4f 23d3 	mov.w	r3, r3, lsr #11
 8000808:	fa03 fc0c 	lsl.w	ip, r3, ip
 800080c:	ea40 000c 	orr.w	r0, r0, ip
 8000810:	fa23 f302 	lsr.w	r3, r3, r2
 8000814:	ea4f 0343 	mov.w	r3, r3, lsl #1
 8000818:	e7cc      	b.n	80007b4 <__aeabi_d2f+0x14>
 800081a:	ea7f 5362 	mvns.w	r3, r2, asr #21
 800081e:	d107      	bne.n	8000830 <__aeabi_d2f+0x90>
 8000820:	ea50 3301 	orrs.w	r3, r0, r1, lsl #12
 8000824:	bf1e      	ittt	ne
 8000826:	f04f 40fe 	movne.w	r0, #2130706432	; 0x7f000000
 800082a:	f440 0040 	orrne.w	r0, r0, #12582912	; 0xc00000
 800082e:	4770      	bxne	lr
 8000830:	f001 4000 	and.w	r0, r1, #2147483648	; 0x80000000
 8000834:	f040 40fe 	orr.w	r0, r0, #2130706432	; 0x7f000000
 8000838:	f440 0000 	orr.w	r0, r0, #8388608	; 0x800000
 800083c:	4770      	bx	lr
 800083e:	bf00      	nop

08000840 <LedControl_TimerOCInit>:

uint32_t time_initial = 0;

//Init timer2 as output comapre mode
void LedControl_TimerOCInit(void)
{
 8000840:	b580      	push	{r7, lr}
 8000842:	b08a      	sub	sp, #40	; 0x28
 8000844:	af00      	add	r7, sp, #0
	GPIO_InitTypeDef 				GPIO_InitStruct;
	TIM_TimeBaseInitTypeDef			TIM_TimeBaseInitStruct;
	TIM_OCInitTypeDef				TIM_OCInitStruct;

	//Enable clock for GPOIA
	RCC_AHB1PeriphClockCmd(LED1_REDControl_SetClock, ENABLE);
 8000846:	2101      	movs	r1, #1
 8000848:	2001      	movs	r0, #1
 800084a:	f000 fe71 	bl	8001530 <RCC_AHB1PeriphClockCmd>

	//Alternate function mode
	GPIO_InitStruct.GPIO_Mode = GPIO_Mode_AF;
 800084e:	2302      	movs	r3, #2
 8000850:	f887 3024 	strb.w	r3, [r7, #36]	; 0x24

	//Medium speed
	GPIO_InitStruct.GPIO_Speed = GPIO_Speed_50MHz;
 8000854:	2302      	movs	r3, #2
 8000856:	f887 3025 	strb.w	r3, [r7, #37]	; 0x25

	//output type push-pull
	GPIO_InitStruct.GPIO_OType = GPIO_OType_PP;
 800085a:	2300      	movs	r3, #0
 800085c:	f887 3026 	strb.w	r3, [r7, #38]	; 0x26
	GPIO_InitStruct.GPIO_PuPd = GPIO_PuPd_NOPULL;
 8000860:	2300      	movs	r3, #0
 8000862:	f887 3027 	strb.w	r3, [r7, #39]	; 0x27

	//Config AP1 as alternate function of timer2
	GPIO_PinAFConfig(LED1_RED_GPIO_PORT, GPIO_PinSource1, GPIO_AF_TIM2);
 8000866:	2201      	movs	r2, #1
 8000868:	2101      	movs	r1, #1
 800086a:	481e      	ldr	r0, [pc, #120]	; (80008e4 <LedControl_TimerOCInit+0xa4>)
 800086c:	f000 fd6f 	bl	800134e <GPIO_PinAFConfig>

	GPIO_InitStruct.GPIO_Pin = GPIO_Pin_1;
 8000870:	2302      	movs	r3, #2
 8000872:	623b      	str	r3, [r7, #32]
	GPIO_Init(LED1_RED_GPIO_PORT, &GPIO_InitStruct);
 8000874:	f107 0320 	add.w	r3, r7, #32
 8000878:	4619      	mov	r1, r3
 800087a:	481a      	ldr	r0, [pc, #104]	; (80008e4 <LedControl_TimerOCInit+0xa4>)
 800087c:	f000 fcd9 	bl	8001232 <GPIO_Init>

	//Enable clock for timer2 peripheral
	RCC_APB1PeriphClockCmd(TIM2_CLK, ENABLE);
 8000880:	2101      	movs	r1, #1
 8000882:	2001      	movs	r0, #1
 8000884:	f000 fe74 	bl	8001570 <RCC_APB1PeriphClockCmd>

	// Clock div 1
	TIM_TimeBaseInitStruct.TIM_Prescaler = 0;
 8000888:	2300      	movs	r3, #0
 800088a:	82bb      	strh	r3, [r7, #20]

	//Counter up
	TIM_TimeBaseInitStruct.TIM_CounterMode = TIM_CounterMode_Up;
 800088c:	2300      	movs	r3, #0
 800088e:	82fb      	strh	r3, [r7, #22]

	//Period = clock / 8400
	TIM_TimeBaseInitStruct.TIM_Period = 8399;
 8000890:	f242 03cf 	movw	r3, #8399	; 0x20cf
 8000894:	61bb      	str	r3, [r7, #24]

	//Clock div 1
	TIM_TimeBaseInitStruct.TIM_ClockDivision = 0;
 8000896:	2300      	movs	r3, #0
 8000898:	83bb      	strh	r3, [r7, #28]

	//
	TIM_TimeBaseInitStruct.TIM_RepetitionCounter = 0;
 800089a:	2300      	movs	r3, #0
 800089c:	77bb      	strb	r3, [r7, #30]

	TIM_TimeBaseInit(TIM2, &TIM_TimeBaseInitStruct);
 800089e:	f107 0314 	add.w	r3, r7, #20
 80008a2:	4619      	mov	r1, r3
 80008a4:	f04f 4080 	mov.w	r0, #1073741824	; 0x40000000
 80008a8:	f000 fec2 	bl	8001630 <TIM_TimeBaseInit>

	//Output captrure mode2
	TIM_OCInitStruct.TIM_OCMode = TIM_OCMode_PWM2;
 80008ac:	2370      	movs	r3, #112	; 0x70
 80008ae:	803b      	strh	r3, [r7, #0]
	TIM_OCInitStruct.TIM_OutputState = TIM_OutputState_Enable;
 80008b0:	2301      	movs	r3, #1
 80008b2:	807b      	strh	r3, [r7, #2]
	TIM_OCInitStruct.TIM_Pulse = 0;
 80008b4:	2300      	movs	r3, #0
 80008b6:	60bb      	str	r3, [r7, #8]
	TIM_OCInitStruct.TIM_OCPolarity = TIM_OCPolarity_Low;
 80008b8:	2302      	movs	r3, #2
 80008ba:	81bb      	strh	r3, [r7, #12]

	TIM_OC2Init(TIM2, &TIM_OCInitStruct);
 80008bc:	463b      	mov	r3, r7
 80008be:	4619      	mov	r1, r3
 80008c0:	f04f 4080 	mov.w	r0, #1073741824	; 0x40000000
 80008c4:	f000 ff40 	bl	8001748 <TIM_OC2Init>

	TIM_Cmd(TIM2, ENABLE);
 80008c8:	2101      	movs	r1, #1
 80008ca:	f04f 4080 	mov.w	r0, #1073741824	; 0x40000000
 80008ce:	f000 ff1b 	bl	8001708 <TIM_Cmd>
	TIM_CtrlPWMOutputs(TIM2, ENABLE);
 80008d2:	2101      	movs	r1, #1
 80008d4:	f04f 4080 	mov.w	r0, #1073741824	; 0x40000000
 80008d8:	f000 ffcc 	bl	8001874 <TIM_CtrlPWMOutputs>
}
 80008dc:	bf00      	nop
 80008de:	3728      	adds	r7, #40	; 0x28
 80008e0:	46bd      	mov	sp, r7
 80008e2:	bd80      	pop	{r7, pc}
 80008e4:	40020000 	.word	0x40020000

080008e8 <LedControl_PWM>:



//Control LED
static void LedControl_PWM(uint16_t duty_cycle)
{
 80008e8:	b580      	push	{r7, lr}
 80008ea:	b082      	sub	sp, #8
 80008ec:	af00      	add	r7, sp, #0
 80008ee:	4603      	mov	r3, r0
 80008f0:	80fb      	strh	r3, [r7, #6]
	static uint16_t pulse_length = 0;

	pulse_length = (Tim_Period * duty_cycle)/100;
 80008f2:	88fb      	ldrh	r3, [r7, #6]
 80008f4:	f242 02cf 	movw	r2, #8399	; 0x20cf
 80008f8:	fb02 f303 	mul.w	r3, r2, r3
 80008fc:	4a09      	ldr	r2, [pc, #36]	; (8000924 <LedControl_PWM+0x3c>)
 80008fe:	fb82 1203 	smull	r1, r2, r2, r3
 8000902:	1152      	asrs	r2, r2, #5
 8000904:	17db      	asrs	r3, r3, #31
 8000906:	1ad3      	subs	r3, r2, r3
 8000908:	b29a      	uxth	r2, r3
 800090a:	4b07      	ldr	r3, [pc, #28]	; (8000928 <LedControl_PWM+0x40>)
 800090c:	801a      	strh	r2, [r3, #0]

	TIM_SetCompare2(TIM2, pulse_length);
 800090e:	4b06      	ldr	r3, [pc, #24]	; (8000928 <LedControl_PWM+0x40>)
 8000910:	881b      	ldrh	r3, [r3, #0]
 8000912:	4619      	mov	r1, r3
 8000914:	f04f 4080 	mov.w	r0, #1073741824	; 0x40000000
 8000918:	f000 ff9e 	bl	8001858 <TIM_SetCompare2>
}
 800091c:	bf00      	nop
 800091e:	3708      	adds	r7, #8
 8000920:	46bd      	mov	sp, r7
 8000922:	bd80      	pop	{r7, pc}
 8000924:	51eb851f 	.word	0x51eb851f
 8000928:	2000005c 	.word	0x2000005c

0800092c <LightSensor_AdcInit>:

//Init ADC to read light sensor
void LightSensor_AdcInit(void)
{
 800092c:	b580      	push	{r7, lr}
 800092e:	b08c      	sub	sp, #48	; 0x30
 8000930:	af00      	add	r7, sp, #0
	ADC_CommonInitTypeDef	ADC_CommonInitStruct;
	GPIO_InitTypeDef		GPIO_InitStruct;

	//-----------------GPIOC Init
	//Enable clock for GPIOC
	RCC_AHB1PeriphClockCmd(ADC_GPIO_CLK, ENABLE);
 8000932:	2101      	movs	r1, #1
 8000934:	2004      	movs	r0, #4
 8000936:	f000 fdfb 	bl	8001530 <RCC_AHB1PeriphClockCmd>

	//Pin 5
	GPIO_InitStruct.GPIO_Pin = ADC_GPIO_PIN;
 800093a:	2320      	movs	r3, #32
 800093c:	603b      	str	r3, [r7, #0]

	//Alternate function mode analog
	GPIO_InitStruct.GPIO_Mode = GPIO_Mode_AN;
 800093e:	2303      	movs	r3, #3
 8000940:	713b      	strb	r3, [r7, #4]

	//Not use pull-up resistor
	GPIO_InitStruct.GPIO_PuPd = GPIO_PuPd_NOPULL;
 8000942:	2300      	movs	r3, #0
 8000944:	71fb      	strb	r3, [r7, #7]
	GPIO_Init(ADC_GPIO, &GPIO_InitStruct);
 8000946:	463b      	mov	r3, r7
 8000948:	4619      	mov	r1, r3
 800094a:	481f      	ldr	r0, [pc, #124]	; (80009c8 <LightSensor_AdcInit+0x9c>)
 800094c:	f000 fc71 	bl	8001232 <GPIO_Init>

	//reset ADC
	ADC_DeInit();
 8000950:	f000 fac4 	bl	8000edc <ADC_DeInit>

	//Enable clock for ADC1
	RCC_APB2PeriphClockCmd(ADCx_CLK, ENABLE);
 8000954:	2101      	movs	r1, #1
 8000956:	f44f 7080 	mov.w	r0, #256	; 0x100
 800095a:	f000 fe29 	bl	80015b0 <RCC_APB2PeriphClockCmd>

	//-----------------ADC Common Init

	//Independent mode
	ADC_CommonInitStruct.ADC_Mode = ADC_Mode_Independent;
 800095e:	2300      	movs	r3, #0
 8000960:	60bb      	str	r3, [r7, #8]

	//Clock /2
	ADC_CommonInitStruct.ADC_Prescaler = ADC_Prescaler_Div2;
 8000962:	2300      	movs	r3, #0
 8000964:	60fb      	str	r3, [r7, #12]

	//Disable DMA
	ADC_CommonInitStruct.ADC_DMAAccessMode = ADC_DMAAccessMode_Disabled;
 8000966:	2300      	movs	r3, #0
 8000968:	613b      	str	r3, [r7, #16]

	//5 cycle for 2 sampling time
	ADC_CommonInitStruct.ADC_TwoSamplingDelay = ADC_TwoSamplingDelay_5Cycles;
 800096a:	2300      	movs	r3, #0
 800096c:	617b      	str	r3, [r7, #20]

	//Update into corresponding register
	ADC_CommonInit(&ADC_CommonInitStruct);
 800096e:	f107 0308 	add.w	r3, r7, #8
 8000972:	4618      	mov	r0, r3
 8000974:	f000 fb16 	bl	8000fa4 <ADC_CommonInit>

	//----------------ADC advanced init

	//12 bits resolution
	ADC_InitStruct.ADC_Resolution = ADC_Resolution_12b;
 8000978:	2300      	movs	r3, #0
 800097a:	61bb      	str	r3, [r7, #24]

	//1 channel conversion
	ADC_InitStruct.ADC_ScanConvMode = DISABLE;
 800097c:	2300      	movs	r3, #0
 800097e:	773b      	strb	r3, [r7, #28]

	//Continuous conversion
	ADC_InitStruct.ADC_ContinuousConvMode = ENABLE;
 8000980:	2301      	movs	r3, #1
 8000982:	777b      	strb	r3, [r7, #29]

	ADC_InitStruct.ADC_ExternalTrigConvEdge = ADC_ExternalTrigConvEdge_None;
 8000984:	2300      	movs	r3, #0
 8000986:	623b      	str	r3, [r7, #32]


	ADC_InitStruct.ADC_ExternalTrigConv = ADC_ExternalTrigConv_T1_CC1;
 8000988:	2300      	movs	r3, #0
 800098a:	627b      	str	r3, [r7, #36]	; 0x24

	//LSB bit is sorted right
	ADC_InitStruct.ADC_DataAlign = ADC_DataAlign_Right;
 800098c:	2300      	movs	r3, #0
 800098e:	62bb      	str	r3, [r7, #40]	; 0x28

	//1 channel is used
	ADC_InitStruct.ADC_NbrOfConversion = 16;
 8000990:	2310      	movs	r3, #16
 8000992:	f887 302c 	strb.w	r3, [r7, #44]	; 0x2c
	ADC_Init(ADCx_SENSOR, &ADC_InitStruct);
 8000996:	f107 0318 	add.w	r3, r7, #24
 800099a:	4619      	mov	r1, r3
 800099c:	480b      	ldr	r0, [pc, #44]	; (80009cc <LightSensor_AdcInit+0xa0>)
 800099e:	f000 faab 	bl	8000ef8 <ADC_Init>


	ADC_EOCOnEachRegularChannelCmd(ADCx_SENSOR, DISABLE);
 80009a2:	2100      	movs	r1, #0
 80009a4:	4809      	ldr	r0, [pc, #36]	; (80009cc <LightSensor_AdcInit+0xa0>)
 80009a6:	f000 fc1b 	bl	80011e0 <ADC_EOCOnEachRegularChannelCmd>
//	ADC_ContinuousModeCmd(ADCx_SENSOR, DISABLE);	//:D. Đoạn này thì lại disable continus
//	ADC_DiscModeChannelCountConfig(ADCx_SENSOR, 16);
//	ADC_DiscModeCmd(ADCx_SENSOR, ENABLE);
	//144 cycles each for each sample
	ADC_RegularChannelConfig(ADCx_SENSOR, ADC_Channel_15, 1, ADC_SampleTime_15Cycles);
 80009aa:	2301      	movs	r3, #1
 80009ac:	2201      	movs	r2, #1
 80009ae:	210f      	movs	r1, #15
 80009b0:	4806      	ldr	r0, [pc, #24]	; (80009cc <LightSensor_AdcInit+0xa0>)
 80009b2:	f000 fb3b 	bl	800102c <ADC_RegularChannelConfig>

	//Enalbe ADC1 peripheral
	ADC_Cmd(ADCx_SENSOR, ENABLE);
 80009b6:	2101      	movs	r1, #1
 80009b8:	4804      	ldr	r0, [pc, #16]	; (80009cc <LightSensor_AdcInit+0xa0>)
 80009ba:	f000 fb1b 	bl	8000ff4 <ADC_Cmd>


}
 80009be:	bf00      	nop
 80009c0:	3730      	adds	r7, #48	; 0x30
 80009c2:	46bd      	mov	sp, r7
 80009c4:	bd80      	pop	{r7, pc}
 80009c6:	bf00      	nop
 80009c8:	40020800 	.word	0x40020800
 80009cc:	40012000 	.word	0x40012000

080009d0 <LightSensor_AdcPollingRead>:


uint16_t LightSensor_AdcPollingRead(void)
{
 80009d0:	b580      	push	{r7, lr}
 80009d2:	b082      	sub	sp, #8
 80009d4:	af00      	add	r7, sp, #0
	//read light value from sensor
	uint16_t mea = ADC_GetConversionValue(ADCx_SENSOR);
 80009d6:	480d      	ldr	r0, [pc, #52]	; (8000a0c <LightSensor_AdcPollingRead+0x3c>)
 80009d8:	f000 fc1e 	bl	8001218 <ADC_GetConversionValue>
 80009dc:	4603      	mov	r3, r0
 80009de:	80fb      	strh	r3, [r7, #6]

	//calculate brightness by kalman filter
	uint16_t result = KalmanFilter_updateEstimate(mea);
 80009e0:	88fb      	ldrh	r3, [r7, #6]
 80009e2:	ee07 3a90 	vmov	s15, r3
 80009e6:	eef8 7a67 	vcvt.f32.u32	s15, s15
 80009ea:	eeb0 0a67 	vmov.f32	s0, s15
 80009ee:	f000 f8b9 	bl	8000b64 <KalmanFilter_updateEstimate>
 80009f2:	eef0 7a40 	vmov.f32	s15, s0
 80009f6:	eefc 7ae7 	vcvt.u32.f32	s15, s15
 80009fa:	ee17 3a90 	vmov	r3, s15
 80009fe:	80bb      	strh	r3, [r7, #4]

	return result;
 8000a00:	88bb      	ldrh	r3, [r7, #4]
}
 8000a02:	4618      	mov	r0, r3
 8000a04:	3708      	adds	r7, #8
 8000a06:	46bd      	mov	sp, r7
 8000a08:	bd80      	pop	{r7, pc}
 8000a0a:	bf00      	nop
 8000a0c:	40012000 	.word	0x40012000

08000a10 <ABL_StepBrightness>:

//Control led brightness via light value
void ABL_StepBrightness(uint16_t light_value)
{
 8000a10:	b580      	push	{r7, lr}
 8000a12:	b082      	sub	sp, #8
 8000a14:	af00      	add	r7, sp, #0
 8000a16:	4603      	mov	r3, r0
 8000a18:	80fb      	strh	r3, [r7, #6]
	if(light_value >= 800)
 8000a1a:	88fb      	ldrh	r3, [r7, #6]
 8000a1c:	f5b3 7f48 	cmp.w	r3, #800	; 0x320
 8000a20:	d303      	bcc.n	8000a2a <ABL_StepBrightness+0x1a>
	{
		//turn off LED
		LedControl_PWM(0);
 8000a22:	2000      	movs	r0, #0
 8000a24:	f7ff ff60 	bl	80008e8 <LedControl_PWM>
	else {

		//led brightness = max
		LedControl_PWM(100);
	}
}
 8000a28:	e019      	b.n	8000a5e <ABL_StepBrightness+0x4e>
	else if (light_value >= 600)
 8000a2a:	88fb      	ldrh	r3, [r7, #6]
 8000a2c:	f5b3 7f16 	cmp.w	r3, #600	; 0x258
 8000a30:	d303      	bcc.n	8000a3a <ABL_StepBrightness+0x2a>
		LedControl_PWM(20);
 8000a32:	2014      	movs	r0, #20
 8000a34:	f7ff ff58 	bl	80008e8 <LedControl_PWM>
}
 8000a38:	e011      	b.n	8000a5e <ABL_StepBrightness+0x4e>
	else if (light_value >= 400) {
 8000a3a:	88fb      	ldrh	r3, [r7, #6]
 8000a3c:	f5b3 7fc8 	cmp.w	r3, #400	; 0x190
 8000a40:	d303      	bcc.n	8000a4a <ABL_StepBrightness+0x3a>
		LedControl_PWM(50);
 8000a42:	2032      	movs	r0, #50	; 0x32
 8000a44:	f7ff ff50 	bl	80008e8 <LedControl_PWM>
}
 8000a48:	e009      	b.n	8000a5e <ABL_StepBrightness+0x4e>
	else if (light_value >= 200) {
 8000a4a:	88fb      	ldrh	r3, [r7, #6]
 8000a4c:	2bc7      	cmp	r3, #199	; 0xc7
 8000a4e:	d903      	bls.n	8000a58 <ABL_StepBrightness+0x48>
		LedControl_PWM(70);
 8000a50:	2046      	movs	r0, #70	; 0x46
 8000a52:	f7ff ff49 	bl	80008e8 <LedControl_PWM>
}
 8000a56:	e002      	b.n	8000a5e <ABL_StepBrightness+0x4e>
		LedControl_PWM(100);
 8000a58:	2064      	movs	r0, #100	; 0x64
 8000a5a:	f7ff ff45 	bl	80008e8 <LedControl_PWM>
}
 8000a5e:	bf00      	nop
 8000a60:	3708      	adds	r7, #8
 8000a62:	46bd      	mov	sp, r7
 8000a64:	bd80      	pop	{r7, pc}

08000a66 <CalculatorTime>:

//Calculate time
uint32_t CalculatorTime(uint32_t dwTimeInit, uint32_t dwTimeCurrent)
{
 8000a66:	b480      	push	{r7}
 8000a68:	b085      	sub	sp, #20
 8000a6a:	af00      	add	r7, sp, #0
 8000a6c:	6078      	str	r0, [r7, #4]
 8000a6e:	6039      	str	r1, [r7, #0]
	uint32_t dwTimeTotal;

	if(dwTimeCurrent >= dwTimeInit)
 8000a70:	683a      	ldr	r2, [r7, #0]
 8000a72:	687b      	ldr	r3, [r7, #4]
 8000a74:	429a      	cmp	r2, r3
 8000a76:	d304      	bcc.n	8000a82 <CalculatorTime+0x1c>
	{
		dwTimeTotal = dwTimeCurrent - dwTimeInit;
 8000a78:	683a      	ldr	r2, [r7, #0]
 8000a7a:	687b      	ldr	r3, [r7, #4]
 8000a7c:	1ad3      	subs	r3, r2, r3
 8000a7e:	60fb      	str	r3, [r7, #12]
 8000a80:	e004      	b.n	8000a8c <CalculatorTime+0x26>
	}
	else
	{
		dwTimeTotal = 0xFFFFFFFFU + dwTimeCurrent - dwTimeInit;
 8000a82:	683a      	ldr	r2, [r7, #0]
 8000a84:	687b      	ldr	r3, [r7, #4]
 8000a86:	1ad3      	subs	r3, r2, r3
 8000a88:	3b01      	subs	r3, #1
 8000a8a:	60fb      	str	r3, [r7, #12]
	}
	return dwTimeTotal;
 8000a8c:	68fb      	ldr	r3, [r7, #12]
}
 8000a8e:	4618      	mov	r0, r3
 8000a90:	3714      	adds	r7, #20
 8000a92:	46bd      	mov	sp, r7
 8000a94:	f85d 7b04 	ldr.w	r7, [sp], #4
 8000a98:	4770      	bx	lr
	...

08000a9c <ABL_Process>:

void ABL_Process(void)
{
 8000a9c:	b598      	push	{r3, r4, r7, lr}
 8000a9e:	af00      	add	r7, sp, #0
	if(CalculatorTime(time_initial, GetMilSecTick()) >= 100)//After 5s
 8000aa0:	4b0c      	ldr	r3, [pc, #48]	; (8000ad4 <ABL_Process+0x38>)
 8000aa2:	681c      	ldr	r4, [r3, #0]
 8000aa4:	f000 ffca 	bl	8001a3c <GetMilSecTick>
 8000aa8:	4603      	mov	r3, r0
 8000aaa:	4619      	mov	r1, r3
 8000aac:	4620      	mov	r0, r4
 8000aae:	f7ff ffda 	bl	8000a66 <CalculatorTime>
 8000ab2:	4603      	mov	r3, r0
 8000ab4:	2b63      	cmp	r3, #99	; 0x63
 8000ab6:	d90a      	bls.n	8000ace <ABL_Process+0x32>
	{
		//Control led brightness via light value
		ABL_StepBrightness(LightSensor_AdcPollingRead());
 8000ab8:	f7ff ff8a 	bl	80009d0 <LightSensor_AdcPollingRead>
 8000abc:	4603      	mov	r3, r0
 8000abe:	4618      	mov	r0, r3
 8000ac0:	f7ff ffa6 	bl	8000a10 <ABL_StepBrightness>

		//Update time_initial
		time_initial = GetMilSecTick();
 8000ac4:	f000 ffba 	bl	8001a3c <GetMilSecTick>
 8000ac8:	4603      	mov	r3, r0
 8000aca:	4a02      	ldr	r2, [pc, #8]	; (8000ad4 <ABL_Process+0x38>)
 8000acc:	6013      	str	r3, [r2, #0]
	}

}
 8000ace:	bf00      	nop
 8000ad0:	bd98      	pop	{r3, r4, r7, pc}
 8000ad2:	bf00      	nop
 8000ad4:	20000058 	.word	0x20000058

08000ad8 <main>:

int main(void)
{
 8000ad8:	b580      	push	{r7, lr}
 8000ada:	af00      	add	r7, sp, #0
	//Init system clock 84MHz
	SystemCoreClockUpdate();
 8000adc:	f000 f932 	bl	8000d44 <SystemCoreClockUpdate>

	KalmanFilterInit(0.2, 0.2, 0.01);
 8000ae0:	ed9f 1a0d 	vldr	s2, [pc, #52]	; 8000b18 <main+0x40>
 8000ae4:	eddf 0a0d 	vldr	s1, [pc, #52]	; 8000b1c <main+0x44>
 8000ae8:	ed9f 0a0c 	vldr	s0, [pc, #48]	; 8000b1c <main+0x44>
 8000aec:	f000 f81c 	bl	8000b28 <KalmanFilterInit>

	//Init timer
	TimerInit();
 8000af0:	f000 ff32 	bl	8001958 <TimerInit>

	//Init timer2 s output compare mode
	LedControl_TimerOCInit();
 8000af4:	f7ff fea4 	bl	8000840 <LedControl_TimerOCInit>

	//init ADC1 channel 15
	LightSensor_AdcInit();
 8000af8:	f7ff ff18 	bl	800092c <LightSensor_AdcInit>

	//Start ADC conversion
	ADC_SoftwareStartConv(ADCx_SENSOR);
 8000afc:	4808      	ldr	r0, [pc, #32]	; (8000b20 <main+0x48>)
 8000afe:	f000 fb5f 	bl	80011c0 <ADC_SoftwareStartConv>

	//Init time_initial
	time_initial = GetMilSecTick();
 8000b02:	f000 ff9b 	bl	8001a3c <GetMilSecTick>
 8000b06:	4603      	mov	r3, r0
 8000b08:	4a06      	ldr	r2, [pc, #24]	; (8000b24 <main+0x4c>)
 8000b0a:	6013      	str	r3, [r2, #0]
	while(1)
	{
		processTimerScheduler();
 8000b0c:	f000 ffa2 	bl	8001a54 <processTimerScheduler>

		//Calculate led brightness
		ABL_Process();
 8000b10:	f7ff ffc4 	bl	8000a9c <ABL_Process>
		processTimerScheduler();
 8000b14:	e7fa      	b.n	8000b0c <main+0x34>
 8000b16:	bf00      	nop
 8000b18:	3c23d70a 	.word	0x3c23d70a
 8000b1c:	3e4ccccd 	.word	0x3e4ccccd
 8000b20:	40012000 	.word	0x40012000
 8000b24:	20000058 	.word	0x20000058

08000b28 <KalmanFilterInit>:
	}
}


void KalmanFilterInit(float mea_e, float est_e, float q)
{
 8000b28:	b480      	push	{r7}
 8000b2a:	b085      	sub	sp, #20
 8000b2c:	af00      	add	r7, sp, #0
 8000b2e:	ed87 0a03 	vstr	s0, [r7, #12]
 8000b32:	edc7 0a02 	vstr	s1, [r7, #8]
 8000b36:	ed87 1a01 	vstr	s2, [r7, #4]
  _err_measure=mea_e;
 8000b3a:	4a07      	ldr	r2, [pc, #28]	; (8000b58 <KalmanFilterInit+0x30>)
 8000b3c:	68fb      	ldr	r3, [r7, #12]
 8000b3e:	6013      	str	r3, [r2, #0]
  _err_estimate=est_e;
 8000b40:	4a06      	ldr	r2, [pc, #24]	; (8000b5c <KalmanFilterInit+0x34>)
 8000b42:	68bb      	ldr	r3, [r7, #8]
 8000b44:	6013      	str	r3, [r2, #0]
  _q = q;
 8000b46:	4a06      	ldr	r2, [pc, #24]	; (8000b60 <KalmanFilterInit+0x38>)
 8000b48:	687b      	ldr	r3, [r7, #4]
 8000b4a:	6013      	str	r3, [r2, #0]
}
 8000b4c:	bf00      	nop
 8000b4e:	3714      	adds	r7, #20
 8000b50:	46bd      	mov	sp, r7
 8000b52:	f85d 7b04 	ldr.w	r7, [sp], #4
 8000b56:	4770      	bx	lr
 8000b58:	20000040 	.word	0x20000040
 8000b5c:	20000044 	.word	0x20000044
 8000b60:	20000048 	.word	0x20000048

08000b64 <KalmanFilter_updateEstimate>:

float KalmanFilter_updateEstimate(float mea)
{
 8000b64:	e92d 43b0 	stmdb	sp!, {r4, r5, r7, r8, r9, lr}
 8000b68:	b082      	sub	sp, #8
 8000b6a:	af00      	add	r7, sp, #0
 8000b6c:	ed87 0a01 	vstr	s0, [r7, #4]
  _kalman_gain = _err_estimate/(_err_estimate + _err_measure);
 8000b70:	4b3d      	ldr	r3, [pc, #244]	; (8000c68 <KalmanFilter_updateEstimate+0x104>)
 8000b72:	edd3 6a00 	vldr	s13, [r3]
 8000b76:	4b3c      	ldr	r3, [pc, #240]	; (8000c68 <KalmanFilter_updateEstimate+0x104>)
 8000b78:	ed93 7a00 	vldr	s14, [r3]
 8000b7c:	4b3b      	ldr	r3, [pc, #236]	; (8000c6c <KalmanFilter_updateEstimate+0x108>)
 8000b7e:	edd3 7a00 	vldr	s15, [r3]
 8000b82:	ee37 7a27 	vadd.f32	s14, s14, s15
 8000b86:	eec6 7a87 	vdiv.f32	s15, s13, s14
 8000b8a:	4b39      	ldr	r3, [pc, #228]	; (8000c70 <KalmanFilter_updateEstimate+0x10c>)
 8000b8c:	edc3 7a00 	vstr	s15, [r3]
  _current_estimate = _last_estimate + _kalman_gain * (mea - _last_estimate);
 8000b90:	4b38      	ldr	r3, [pc, #224]	; (8000c74 <KalmanFilter_updateEstimate+0x110>)
 8000b92:	edd3 7a00 	vldr	s15, [r3]
 8000b96:	ed97 7a01 	vldr	s14, [r7, #4]
 8000b9a:	ee37 7a67 	vsub.f32	s14, s14, s15
 8000b9e:	4b34      	ldr	r3, [pc, #208]	; (8000c70 <KalmanFilter_updateEstimate+0x10c>)
 8000ba0:	edd3 7a00 	vldr	s15, [r3]
 8000ba4:	ee27 7a27 	vmul.f32	s14, s14, s15
 8000ba8:	4b32      	ldr	r3, [pc, #200]	; (8000c74 <KalmanFilter_updateEstimate+0x110>)
 8000baa:	edd3 7a00 	vldr	s15, [r3]
 8000bae:	ee77 7a27 	vadd.f32	s15, s14, s15
 8000bb2:	4b31      	ldr	r3, [pc, #196]	; (8000c78 <KalmanFilter_updateEstimate+0x114>)
 8000bb4:	edc3 7a00 	vstr	s15, [r3]
  _err_estimate =  (1.0 - _kalman_gain)*_err_estimate + fabs(_last_estimate-_current_estimate)*_q;
 8000bb8:	4b2d      	ldr	r3, [pc, #180]	; (8000c70 <KalmanFilter_updateEstimate+0x10c>)
 8000bba:	681b      	ldr	r3, [r3, #0]
 8000bbc:	4618      	mov	r0, r3
 8000bbe:	f7ff fd97 	bl	80006f0 <__aeabi_f2d>
 8000bc2:	4602      	mov	r2, r0
 8000bc4:	460b      	mov	r3, r1
 8000bc6:	f04f 0000 	mov.w	r0, #0
 8000bca:	492c      	ldr	r1, [pc, #176]	; (8000c7c <KalmanFilter_updateEstimate+0x118>)
 8000bcc:	f7ff fc30 	bl	8000430 <__aeabi_dsub>
 8000bd0:	4602      	mov	r2, r0
 8000bd2:	460b      	mov	r3, r1
 8000bd4:	4614      	mov	r4, r2
 8000bd6:	461d      	mov	r5, r3
 8000bd8:	4b23      	ldr	r3, [pc, #140]	; (8000c68 <KalmanFilter_updateEstimate+0x104>)
 8000bda:	681b      	ldr	r3, [r3, #0]
 8000bdc:	4618      	mov	r0, r3
 8000bde:	f7ff fd87 	bl	80006f0 <__aeabi_f2d>
 8000be2:	4602      	mov	r2, r0
 8000be4:	460b      	mov	r3, r1
 8000be6:	4620      	mov	r0, r4
 8000be8:	4629      	mov	r1, r5
 8000bea:	f7ff faf3 	bl	80001d4 <__aeabi_dmul>
 8000bee:	4602      	mov	r2, r0
 8000bf0:	460b      	mov	r3, r1
 8000bf2:	4690      	mov	r8, r2
 8000bf4:	4699      	mov	r9, r3
 8000bf6:	4b1f      	ldr	r3, [pc, #124]	; (8000c74 <KalmanFilter_updateEstimate+0x110>)
 8000bf8:	ed93 7a00 	vldr	s14, [r3]
 8000bfc:	4b1e      	ldr	r3, [pc, #120]	; (8000c78 <KalmanFilter_updateEstimate+0x114>)
 8000bfe:	edd3 7a00 	vldr	s15, [r3]
 8000c02:	ee77 7a67 	vsub.f32	s15, s14, s15
 8000c06:	eef0 7ae7 	vabs.f32	s15, s15
 8000c0a:	ee17 0a90 	vmov	r0, s15
 8000c0e:	f7ff fd6f 	bl	80006f0 <__aeabi_f2d>
 8000c12:	4604      	mov	r4, r0
 8000c14:	460d      	mov	r5, r1
 8000c16:	4b1a      	ldr	r3, [pc, #104]	; (8000c80 <KalmanFilter_updateEstimate+0x11c>)
 8000c18:	681b      	ldr	r3, [r3, #0]
 8000c1a:	4618      	mov	r0, r3
 8000c1c:	f7ff fd68 	bl	80006f0 <__aeabi_f2d>
 8000c20:	4602      	mov	r2, r0
 8000c22:	460b      	mov	r3, r1
 8000c24:	4620      	mov	r0, r4
 8000c26:	4629      	mov	r1, r5
 8000c28:	f7ff fad4 	bl	80001d4 <__aeabi_dmul>
 8000c2c:	4602      	mov	r2, r0
 8000c2e:	460b      	mov	r3, r1
 8000c30:	4640      	mov	r0, r8
 8000c32:	4649      	mov	r1, r9
 8000c34:	f7ff fbfe 	bl	8000434 <__adddf3>
 8000c38:	4602      	mov	r2, r0
 8000c3a:	460b      	mov	r3, r1
 8000c3c:	4610      	mov	r0, r2
 8000c3e:	4619      	mov	r1, r3
 8000c40:	f7ff fdae 	bl	80007a0 <__aeabi_d2f>
 8000c44:	4603      	mov	r3, r0
 8000c46:	4a08      	ldr	r2, [pc, #32]	; (8000c68 <KalmanFilter_updateEstimate+0x104>)
 8000c48:	6013      	str	r3, [r2, #0]
  _last_estimate=_current_estimate;
 8000c4a:	4b0b      	ldr	r3, [pc, #44]	; (8000c78 <KalmanFilter_updateEstimate+0x114>)
 8000c4c:	681b      	ldr	r3, [r3, #0]
 8000c4e:	4a09      	ldr	r2, [pc, #36]	; (8000c74 <KalmanFilter_updateEstimate+0x110>)
 8000c50:	6013      	str	r3, [r2, #0]

  return _current_estimate;
 8000c52:	4b09      	ldr	r3, [pc, #36]	; (8000c78 <KalmanFilter_updateEstimate+0x114>)
 8000c54:	681b      	ldr	r3, [r3, #0]
 8000c56:	ee07 3a90 	vmov	s15, r3
}
 8000c5a:	eeb0 0a67 	vmov.f32	s0, s15
 8000c5e:	3708      	adds	r7, #8
 8000c60:	46bd      	mov	sp, r7
 8000c62:	e8bd 83b0 	ldmia.w	sp!, {r4, r5, r7, r8, r9, pc}
 8000c66:	bf00      	nop
 8000c68:	20000044 	.word	0x20000044
 8000c6c:	20000040 	.word	0x20000040
 8000c70:	20000054 	.word	0x20000054
 8000c74:	20000050 	.word	0x20000050
 8000c78:	2000004c 	.word	0x2000004c
 8000c7c:	3ff00000 	.word	0x3ff00000
 8000c80:	20000048 	.word	0x20000048

08000c84 <Reset_Handler>:

  .section .text.Reset_Handler
  .weak Reset_Handler
  .type Reset_Handler, %function
Reset_Handler:
  ldr   r0, =_estack
 8000c84:	480d      	ldr	r0, [pc, #52]	; (8000cbc <LoopForever+0x2>)
  mov   sp, r0          /* set stack pointer */
 8000c86:	4685      	mov	sp, r0
/* Call the clock system intitialization function.*/
  bl  SystemInit
 8000c88:	f000 f826 	bl	8000cd8 <SystemInit>

/* Copy the data segment initializers from flash to SRAM */
  ldr r0, =_sdata
 8000c8c:	480c      	ldr	r0, [pc, #48]	; (8000cc0 <LoopForever+0x6>)
  ldr r1, =_edata
 8000c8e:	490d      	ldr	r1, [pc, #52]	; (8000cc4 <LoopForever+0xa>)
  ldr r2, =_sidata
 8000c90:	4a0d      	ldr	r2, [pc, #52]	; (8000cc8 <LoopForever+0xe>)
  movs r3, #0
 8000c92:	2300      	movs	r3, #0
  b LoopCopyDataInit
 8000c94:	e002      	b.n	8000c9c <LoopCopyDataInit>

08000c96 <CopyDataInit>:

CopyDataInit:
  ldr r4, [r2, r3]
 8000c96:	58d4      	ldr	r4, [r2, r3]
  str r4, [r0, r3]
 8000c98:	50c4      	str	r4, [r0, r3]
  adds r3, r3, #4
 8000c9a:	3304      	adds	r3, #4

08000c9c <LoopCopyDataInit>:

LoopCopyDataInit:
  adds r4, r0, r3
 8000c9c:	18c4      	adds	r4, r0, r3
  cmp r4, r1
 8000c9e:	428c      	cmp	r4, r1
  bcc CopyDataInit
 8000ca0:	d3f9      	bcc.n	8000c96 <CopyDataInit>

/* Zero fill the bss segment. */
  ldr r2, =_sbss
 8000ca2:	4a0a      	ldr	r2, [pc, #40]	; (8000ccc <LoopForever+0x12>)
  ldr r4, =_ebss
 8000ca4:	4c0a      	ldr	r4, [pc, #40]	; (8000cd0 <LoopForever+0x16>)
  movs r3, #0
 8000ca6:	2300      	movs	r3, #0
  b LoopFillZerobss
 8000ca8:	e001      	b.n	8000cae <LoopFillZerobss>

08000caa <FillZerobss>:

FillZerobss:
  str  r3, [r2]
 8000caa:	6013      	str	r3, [r2, #0]
  adds r2, r2, #4
 8000cac:	3204      	adds	r2, #4

08000cae <LoopFillZerobss>:

LoopFillZerobss:
  cmp r2, r4
 8000cae:	42a2      	cmp	r2, r4
  bcc FillZerobss
 8000cb0:	d3fb      	bcc.n	8000caa <FillZerobss>

/* Call static constructors */
  bl __libc_init_array
 8000cb2:	f000 ffd5 	bl	8001c60 <__libc_init_array>
/* Call the application's entry point.*/
  bl main
 8000cb6:	f7ff ff0f 	bl	8000ad8 <main>

08000cba <LoopForever>:

LoopForever:
    b LoopForever
 8000cba:	e7fe      	b.n	8000cba <LoopForever>
  ldr   r0, =_estack
 8000cbc:	20018000 	.word	0x20018000
  ldr r0, =_sdata
 8000cc0:	20000000 	.word	0x20000000
  ldr r1, =_edata
 8000cc4:	20000024 	.word	0x20000024
  ldr r2, =_sidata
 8000cc8:	08001cc8 	.word	0x08001cc8
  ldr r2, =_sbss
 8000ccc:	20000024 	.word	0x20000024
  ldr r4, =_ebss
 8000cd0:	200001e4 	.word	0x200001e4

08000cd4 <ADC_IRQHandler>:
 * @retval : None
*/
  .section .text.Default_Handler,"ax",%progbits
Default_Handler:
Infinite_Loop:
  b Infinite_Loop
 8000cd4:	e7fe      	b.n	8000cd4 <ADC_IRQHandler>
	...

08000cd8 <SystemInit>:
 8000cd8:	b580      	push	{r7, lr}
 8000cda:	af00      	add	r7, sp, #0
 8000cdc:	4b16      	ldr	r3, [pc, #88]	; (8000d38 <SystemInit+0x60>)
 8000cde:	f8d3 3088 	ldr.w	r3, [r3, #136]	; 0x88
 8000ce2:	4a15      	ldr	r2, [pc, #84]	; (8000d38 <SystemInit+0x60>)
 8000ce4:	f443 0370 	orr.w	r3, r3, #15728640	; 0xf00000
 8000ce8:	f8c2 3088 	str.w	r3, [r2, #136]	; 0x88
 8000cec:	4b13      	ldr	r3, [pc, #76]	; (8000d3c <SystemInit+0x64>)
 8000cee:	681b      	ldr	r3, [r3, #0]
 8000cf0:	4a12      	ldr	r2, [pc, #72]	; (8000d3c <SystemInit+0x64>)
 8000cf2:	f043 0301 	orr.w	r3, r3, #1
 8000cf6:	6013      	str	r3, [r2, #0]
 8000cf8:	4b10      	ldr	r3, [pc, #64]	; (8000d3c <SystemInit+0x64>)
 8000cfa:	2200      	movs	r2, #0
 8000cfc:	609a      	str	r2, [r3, #8]
 8000cfe:	4b0f      	ldr	r3, [pc, #60]	; (8000d3c <SystemInit+0x64>)
 8000d00:	681b      	ldr	r3, [r3, #0]
 8000d02:	4a0e      	ldr	r2, [pc, #56]	; (8000d3c <SystemInit+0x64>)
 8000d04:	f023 7384 	bic.w	r3, r3, #17301504	; 0x1080000
 8000d08:	f423 3380 	bic.w	r3, r3, #65536	; 0x10000
 8000d0c:	6013      	str	r3, [r2, #0]
 8000d0e:	4b0b      	ldr	r3, [pc, #44]	; (8000d3c <SystemInit+0x64>)
 8000d10:	4a0b      	ldr	r2, [pc, #44]	; (8000d40 <SystemInit+0x68>)
 8000d12:	605a      	str	r2, [r3, #4]
 8000d14:	4b09      	ldr	r3, [pc, #36]	; (8000d3c <SystemInit+0x64>)
 8000d16:	681b      	ldr	r3, [r3, #0]
 8000d18:	4a08      	ldr	r2, [pc, #32]	; (8000d3c <SystemInit+0x64>)
 8000d1a:	f423 2380 	bic.w	r3, r3, #262144	; 0x40000
 8000d1e:	6013      	str	r3, [r2, #0]
 8000d20:	4b06      	ldr	r3, [pc, #24]	; (8000d3c <SystemInit+0x64>)
 8000d22:	2200      	movs	r2, #0
 8000d24:	60da      	str	r2, [r3, #12]
 8000d26:	f000 f889 	bl	8000e3c <SetSysClock>
 8000d2a:	4b03      	ldr	r3, [pc, #12]	; (8000d38 <SystemInit+0x60>)
 8000d2c:	f04f 6200 	mov.w	r2, #134217728	; 0x8000000
 8000d30:	609a      	str	r2, [r3, #8]
 8000d32:	bf00      	nop
 8000d34:	bd80      	pop	{r7, pc}
 8000d36:	bf00      	nop
 8000d38:	e000ed00 	.word	0xe000ed00
 8000d3c:	40023800 	.word	0x40023800
 8000d40:	24003010 	.word	0x24003010

08000d44 <SystemCoreClockUpdate>:
 8000d44:	b480      	push	{r7}
 8000d46:	b087      	sub	sp, #28
 8000d48:	af00      	add	r7, sp, #0
 8000d4a:	2300      	movs	r3, #0
 8000d4c:	613b      	str	r3, [r7, #16]
 8000d4e:	2300      	movs	r3, #0
 8000d50:	617b      	str	r3, [r7, #20]
 8000d52:	2302      	movs	r3, #2
 8000d54:	60fb      	str	r3, [r7, #12]
 8000d56:	2300      	movs	r3, #0
 8000d58:	60bb      	str	r3, [r7, #8]
 8000d5a:	2302      	movs	r3, #2
 8000d5c:	607b      	str	r3, [r7, #4]
 8000d5e:	4b32      	ldr	r3, [pc, #200]	; (8000e28 <SystemCoreClockUpdate+0xe4>)
 8000d60:	689b      	ldr	r3, [r3, #8]
 8000d62:	f003 030c 	and.w	r3, r3, #12
 8000d66:	613b      	str	r3, [r7, #16]
 8000d68:	693b      	ldr	r3, [r7, #16]
 8000d6a:	2b04      	cmp	r3, #4
 8000d6c:	d007      	beq.n	8000d7e <SystemCoreClockUpdate+0x3a>
 8000d6e:	2b08      	cmp	r3, #8
 8000d70:	d009      	beq.n	8000d86 <SystemCoreClockUpdate+0x42>
 8000d72:	2b00      	cmp	r3, #0
 8000d74:	d13d      	bne.n	8000df2 <SystemCoreClockUpdate+0xae>
 8000d76:	4b2d      	ldr	r3, [pc, #180]	; (8000e2c <SystemCoreClockUpdate+0xe8>)
 8000d78:	4a2d      	ldr	r2, [pc, #180]	; (8000e30 <SystemCoreClockUpdate+0xec>)
 8000d7a:	601a      	str	r2, [r3, #0]
 8000d7c:	e03d      	b.n	8000dfa <SystemCoreClockUpdate+0xb6>
 8000d7e:	4b2b      	ldr	r3, [pc, #172]	; (8000e2c <SystemCoreClockUpdate+0xe8>)
 8000d80:	4a2c      	ldr	r2, [pc, #176]	; (8000e34 <SystemCoreClockUpdate+0xf0>)
 8000d82:	601a      	str	r2, [r3, #0]
 8000d84:	e039      	b.n	8000dfa <SystemCoreClockUpdate+0xb6>
 8000d86:	4b28      	ldr	r3, [pc, #160]	; (8000e28 <SystemCoreClockUpdate+0xe4>)
 8000d88:	685b      	ldr	r3, [r3, #4]
 8000d8a:	0d9b      	lsrs	r3, r3, #22
 8000d8c:	f003 0301 	and.w	r3, r3, #1
 8000d90:	60bb      	str	r3, [r7, #8]
 8000d92:	4b25      	ldr	r3, [pc, #148]	; (8000e28 <SystemCoreClockUpdate+0xe4>)
 8000d94:	685b      	ldr	r3, [r3, #4]
 8000d96:	f003 033f 	and.w	r3, r3, #63	; 0x3f
 8000d9a:	607b      	str	r3, [r7, #4]
 8000d9c:	68bb      	ldr	r3, [r7, #8]
 8000d9e:	2b00      	cmp	r3, #0
 8000da0:	d00c      	beq.n	8000dbc <SystemCoreClockUpdate+0x78>
 8000da2:	4a24      	ldr	r2, [pc, #144]	; (8000e34 <SystemCoreClockUpdate+0xf0>)
 8000da4:	687b      	ldr	r3, [r7, #4]
 8000da6:	fbb2 f3f3 	udiv	r3, r2, r3
 8000daa:	4a1f      	ldr	r2, [pc, #124]	; (8000e28 <SystemCoreClockUpdate+0xe4>)
 8000dac:	6852      	ldr	r2, [r2, #4]
 8000dae:	0992      	lsrs	r2, r2, #6
 8000db0:	f3c2 0208 	ubfx	r2, r2, #0, #9
 8000db4:	fb02 f303 	mul.w	r3, r2, r3
 8000db8:	617b      	str	r3, [r7, #20]
 8000dba:	e00b      	b.n	8000dd4 <SystemCoreClockUpdate+0x90>
 8000dbc:	4a1c      	ldr	r2, [pc, #112]	; (8000e30 <SystemCoreClockUpdate+0xec>)
 8000dbe:	687b      	ldr	r3, [r7, #4]
 8000dc0:	fbb2 f3f3 	udiv	r3, r2, r3
 8000dc4:	4a18      	ldr	r2, [pc, #96]	; (8000e28 <SystemCoreClockUpdate+0xe4>)
 8000dc6:	6852      	ldr	r2, [r2, #4]
 8000dc8:	0992      	lsrs	r2, r2, #6
 8000dca:	f3c2 0208 	ubfx	r2, r2, #0, #9
 8000dce:	fb02 f303 	mul.w	r3, r2, r3
 8000dd2:	617b      	str	r3, [r7, #20]
 8000dd4:	4b14      	ldr	r3, [pc, #80]	; (8000e28 <SystemCoreClockUpdate+0xe4>)
 8000dd6:	685b      	ldr	r3, [r3, #4]
 8000dd8:	0c1b      	lsrs	r3, r3, #16
 8000dda:	f003 0303 	and.w	r3, r3, #3
 8000dde:	3301      	adds	r3, #1
 8000de0:	005b      	lsls	r3, r3, #1
 8000de2:	60fb      	str	r3, [r7, #12]
 8000de4:	697a      	ldr	r2, [r7, #20]
 8000de6:	68fb      	ldr	r3, [r7, #12]
 8000de8:	fbb2 f3f3 	udiv	r3, r2, r3
 8000dec:	4a0f      	ldr	r2, [pc, #60]	; (8000e2c <SystemCoreClockUpdate+0xe8>)
 8000dee:	6013      	str	r3, [r2, #0]
 8000df0:	e003      	b.n	8000dfa <SystemCoreClockUpdate+0xb6>
 8000df2:	4b0e      	ldr	r3, [pc, #56]	; (8000e2c <SystemCoreClockUpdate+0xe8>)
 8000df4:	4a0e      	ldr	r2, [pc, #56]	; (8000e30 <SystemCoreClockUpdate+0xec>)
 8000df6:	601a      	str	r2, [r3, #0]
 8000df8:	bf00      	nop
 8000dfa:	4b0b      	ldr	r3, [pc, #44]	; (8000e28 <SystemCoreClockUpdate+0xe4>)
 8000dfc:	689b      	ldr	r3, [r3, #8]
 8000dfe:	091b      	lsrs	r3, r3, #4
 8000e00:	f003 030f 	and.w	r3, r3, #15
 8000e04:	4a0c      	ldr	r2, [pc, #48]	; (8000e38 <SystemCoreClockUpdate+0xf4>)
 8000e06:	5cd3      	ldrb	r3, [r2, r3]
 8000e08:	b2db      	uxtb	r3, r3
 8000e0a:	613b      	str	r3, [r7, #16]
 8000e0c:	4b07      	ldr	r3, [pc, #28]	; (8000e2c <SystemCoreClockUpdate+0xe8>)
 8000e0e:	681a      	ldr	r2, [r3, #0]
 8000e10:	693b      	ldr	r3, [r7, #16]
 8000e12:	fa22 f303 	lsr.w	r3, r2, r3
 8000e16:	4a05      	ldr	r2, [pc, #20]	; (8000e2c <SystemCoreClockUpdate+0xe8>)
 8000e18:	6013      	str	r3, [r2, #0]
 8000e1a:	bf00      	nop
 8000e1c:	371c      	adds	r7, #28
 8000e1e:	46bd      	mov	sp, r7
 8000e20:	f85d 7b04 	ldr.w	r7, [sp], #4
 8000e24:	4770      	bx	lr
 8000e26:	bf00      	nop
 8000e28:	40023800 	.word	0x40023800
 8000e2c:	20000000 	.word	0x20000000
 8000e30:	00f42400 	.word	0x00f42400
 8000e34:	017d7840 	.word	0x017d7840
 8000e38:	20000004 	.word	0x20000004

08000e3c <SetSysClock>:
 8000e3c:	b480      	push	{r7}
 8000e3e:	af00      	add	r7, sp, #0
 8000e40:	4b22      	ldr	r3, [pc, #136]	; (8000ecc <SetSysClock+0x90>)
 8000e42:	6c1b      	ldr	r3, [r3, #64]	; 0x40
 8000e44:	4a21      	ldr	r2, [pc, #132]	; (8000ecc <SetSysClock+0x90>)
 8000e46:	f043 5380 	orr.w	r3, r3, #268435456	; 0x10000000
 8000e4a:	6413      	str	r3, [r2, #64]	; 0x40
 8000e4c:	4b20      	ldr	r3, [pc, #128]	; (8000ed0 <SetSysClock+0x94>)
 8000e4e:	681b      	ldr	r3, [r3, #0]
 8000e50:	4a1f      	ldr	r2, [pc, #124]	; (8000ed0 <SetSysClock+0x94>)
 8000e52:	f443 4340 	orr.w	r3, r3, #49152	; 0xc000
 8000e56:	6013      	str	r3, [r2, #0]
 8000e58:	4b1c      	ldr	r3, [pc, #112]	; (8000ecc <SetSysClock+0x90>)
 8000e5a:	4a1c      	ldr	r2, [pc, #112]	; (8000ecc <SetSysClock+0x90>)
 8000e5c:	689b      	ldr	r3, [r3, #8]
 8000e5e:	6093      	str	r3, [r2, #8]
 8000e60:	4b1a      	ldr	r3, [pc, #104]	; (8000ecc <SetSysClock+0x90>)
 8000e62:	4a1a      	ldr	r2, [pc, #104]	; (8000ecc <SetSysClock+0x90>)
 8000e64:	689b      	ldr	r3, [r3, #8]
 8000e66:	6093      	str	r3, [r2, #8]
 8000e68:	4b18      	ldr	r3, [pc, #96]	; (8000ecc <SetSysClock+0x90>)
 8000e6a:	689b      	ldr	r3, [r3, #8]
 8000e6c:	4a17      	ldr	r2, [pc, #92]	; (8000ecc <SetSysClock+0x90>)
 8000e6e:	f443 5380 	orr.w	r3, r3, #4096	; 0x1000
 8000e72:	6093      	str	r3, [r2, #8]
 8000e74:	4b15      	ldr	r3, [pc, #84]	; (8000ecc <SetSysClock+0x90>)
 8000e76:	4a17      	ldr	r2, [pc, #92]	; (8000ed4 <SetSysClock+0x98>)
 8000e78:	605a      	str	r2, [r3, #4]
 8000e7a:	4b14      	ldr	r3, [pc, #80]	; (8000ecc <SetSysClock+0x90>)
 8000e7c:	681b      	ldr	r3, [r3, #0]
 8000e7e:	4a13      	ldr	r2, [pc, #76]	; (8000ecc <SetSysClock+0x90>)
 8000e80:	f043 7380 	orr.w	r3, r3, #16777216	; 0x1000000
 8000e84:	6013      	str	r3, [r2, #0]
 8000e86:	bf00      	nop
 8000e88:	4b10      	ldr	r3, [pc, #64]	; (8000ecc <SetSysClock+0x90>)
 8000e8a:	681b      	ldr	r3, [r3, #0]
 8000e8c:	f003 7300 	and.w	r3, r3, #33554432	; 0x2000000
 8000e90:	2b00      	cmp	r3, #0
 8000e92:	d0f9      	beq.n	8000e88 <SetSysClock+0x4c>
 8000e94:	4b10      	ldr	r3, [pc, #64]	; (8000ed8 <SetSysClock+0x9c>)
 8000e96:	f240 6202 	movw	r2, #1538	; 0x602
 8000e9a:	601a      	str	r2, [r3, #0]
 8000e9c:	4b0b      	ldr	r3, [pc, #44]	; (8000ecc <SetSysClock+0x90>)
 8000e9e:	689b      	ldr	r3, [r3, #8]
 8000ea0:	4a0a      	ldr	r2, [pc, #40]	; (8000ecc <SetSysClock+0x90>)
 8000ea2:	f023 0303 	bic.w	r3, r3, #3
 8000ea6:	6093      	str	r3, [r2, #8]
 8000ea8:	4b08      	ldr	r3, [pc, #32]	; (8000ecc <SetSysClock+0x90>)
 8000eaa:	689b      	ldr	r3, [r3, #8]
 8000eac:	4a07      	ldr	r2, [pc, #28]	; (8000ecc <SetSysClock+0x90>)
 8000eae:	f043 0302 	orr.w	r3, r3, #2
 8000eb2:	6093      	str	r3, [r2, #8]
 8000eb4:	bf00      	nop
 8000eb6:	4b05      	ldr	r3, [pc, #20]	; (8000ecc <SetSysClock+0x90>)
 8000eb8:	689b      	ldr	r3, [r3, #8]
 8000eba:	f003 030c 	and.w	r3, r3, #12
 8000ebe:	2b08      	cmp	r3, #8
 8000ec0:	d1f9      	bne.n	8000eb6 <SetSysClock+0x7a>
 8000ec2:	bf00      	nop
 8000ec4:	46bd      	mov	sp, r7
 8000ec6:	f85d 7b04 	ldr.w	r7, [sp], #4
 8000eca:	4770      	bx	lr
 8000ecc:	40023800 	.word	0x40023800
 8000ed0:	40007000 	.word	0x40007000
 8000ed4:	08015410 	.word	0x08015410
 8000ed8:	40023c00 	.word	0x40023c00

08000edc <ADC_DeInit>:
 8000edc:	b580      	push	{r7, lr}
 8000ede:	af00      	add	r7, sp, #0
 8000ee0:	2101      	movs	r1, #1
 8000ee2:	f44f 7080 	mov.w	r0, #256	; 0x100
 8000ee6:	f000 fb83 	bl	80015f0 <RCC_APB2PeriphResetCmd>
 8000eea:	2100      	movs	r1, #0
 8000eec:	f44f 7080 	mov.w	r0, #256	; 0x100
 8000ef0:	f000 fb7e 	bl	80015f0 <RCC_APB2PeriphResetCmd>
 8000ef4:	bf00      	nop
 8000ef6:	bd80      	pop	{r7, pc}

08000ef8 <ADC_Init>:
 8000ef8:	b480      	push	{r7}
 8000efa:	b085      	sub	sp, #20
 8000efc:	af00      	add	r7, sp, #0
 8000efe:	6078      	str	r0, [r7, #4]
 8000f00:	6039      	str	r1, [r7, #0]
 8000f02:	2300      	movs	r3, #0
 8000f04:	60fb      	str	r3, [r7, #12]
 8000f06:	2300      	movs	r3, #0
 8000f08:	72fb      	strb	r3, [r7, #11]
 8000f0a:	687b      	ldr	r3, [r7, #4]
 8000f0c:	685b      	ldr	r3, [r3, #4]
 8000f0e:	60fb      	str	r3, [r7, #12]
 8000f10:	68fb      	ldr	r3, [r7, #12]
 8000f12:	f023 7340 	bic.w	r3, r3, #50331648	; 0x3000000
 8000f16:	f423 7380 	bic.w	r3, r3, #256	; 0x100
 8000f1a:	60fb      	str	r3, [r7, #12]
 8000f1c:	683b      	ldr	r3, [r7, #0]
 8000f1e:	791b      	ldrb	r3, [r3, #4]
 8000f20:	021a      	lsls	r2, r3, #8
 8000f22:	683b      	ldr	r3, [r7, #0]
 8000f24:	681b      	ldr	r3, [r3, #0]
 8000f26:	4313      	orrs	r3, r2
 8000f28:	68fa      	ldr	r2, [r7, #12]
 8000f2a:	4313      	orrs	r3, r2
 8000f2c:	60fb      	str	r3, [r7, #12]
 8000f2e:	687b      	ldr	r3, [r7, #4]
 8000f30:	68fa      	ldr	r2, [r7, #12]
 8000f32:	605a      	str	r2, [r3, #4]
 8000f34:	687b      	ldr	r3, [r7, #4]
 8000f36:	689b      	ldr	r3, [r3, #8]
 8000f38:	60fb      	str	r3, [r7, #12]
 8000f3a:	68fa      	ldr	r2, [r7, #12]
 8000f3c:	4b18      	ldr	r3, [pc, #96]	; (8000fa0 <ADC_Init+0xa8>)
 8000f3e:	4013      	ands	r3, r2
 8000f40:	60fb      	str	r3, [r7, #12]
 8000f42:	683b      	ldr	r3, [r7, #0]
 8000f44:	691a      	ldr	r2, [r3, #16]
 8000f46:	683b      	ldr	r3, [r7, #0]
 8000f48:	68db      	ldr	r3, [r3, #12]
 8000f4a:	431a      	orrs	r2, r3
 8000f4c:	683b      	ldr	r3, [r7, #0]
 8000f4e:	689b      	ldr	r3, [r3, #8]
 8000f50:	431a      	orrs	r2, r3
 8000f52:	683b      	ldr	r3, [r7, #0]
 8000f54:	795b      	ldrb	r3, [r3, #5]
 8000f56:	005b      	lsls	r3, r3, #1
 8000f58:	4313      	orrs	r3, r2
 8000f5a:	68fa      	ldr	r2, [r7, #12]
 8000f5c:	4313      	orrs	r3, r2
 8000f5e:	60fb      	str	r3, [r7, #12]
 8000f60:	687b      	ldr	r3, [r7, #4]
 8000f62:	68fa      	ldr	r2, [r7, #12]
 8000f64:	609a      	str	r2, [r3, #8]
 8000f66:	687b      	ldr	r3, [r7, #4]
 8000f68:	6adb      	ldr	r3, [r3, #44]	; 0x2c
 8000f6a:	60fb      	str	r3, [r7, #12]
 8000f6c:	68fb      	ldr	r3, [r7, #12]
 8000f6e:	f423 0370 	bic.w	r3, r3, #15728640	; 0xf00000
 8000f72:	60fb      	str	r3, [r7, #12]
 8000f74:	683b      	ldr	r3, [r7, #0]
 8000f76:	7d1b      	ldrb	r3, [r3, #20]
 8000f78:	3b01      	subs	r3, #1
 8000f7a:	b2da      	uxtb	r2, r3
 8000f7c:	7afb      	ldrb	r3, [r7, #11]
 8000f7e:	4313      	orrs	r3, r2
 8000f80:	72fb      	strb	r3, [r7, #11]
 8000f82:	7afb      	ldrb	r3, [r7, #11]
 8000f84:	051b      	lsls	r3, r3, #20
 8000f86:	68fa      	ldr	r2, [r7, #12]
 8000f88:	4313      	orrs	r3, r2
 8000f8a:	60fb      	str	r3, [r7, #12]
 8000f8c:	687b      	ldr	r3, [r7, #4]
 8000f8e:	68fa      	ldr	r2, [r7, #12]
 8000f90:	62da      	str	r2, [r3, #44]	; 0x2c
 8000f92:	bf00      	nop
 8000f94:	3714      	adds	r7, #20
 8000f96:	46bd      	mov	sp, r7
 8000f98:	f85d 7b04 	ldr.w	r7, [sp], #4
 8000f9c:	4770      	bx	lr
 8000f9e:	bf00      	nop
 8000fa0:	c0fff7fd 	.word	0xc0fff7fd

08000fa4 <ADC_CommonInit>:
 8000fa4:	b480      	push	{r7}
 8000fa6:	b085      	sub	sp, #20
 8000fa8:	af00      	add	r7, sp, #0
 8000faa:	6078      	str	r0, [r7, #4]
 8000fac:	2300      	movs	r3, #0
 8000fae:	60fb      	str	r3, [r7, #12]
 8000fb0:	4b0e      	ldr	r3, [pc, #56]	; (8000fec <ADC_CommonInit+0x48>)
 8000fb2:	685b      	ldr	r3, [r3, #4]
 8000fb4:	60fb      	str	r3, [r7, #12]
 8000fb6:	68fa      	ldr	r2, [r7, #12]
 8000fb8:	4b0d      	ldr	r3, [pc, #52]	; (8000ff0 <ADC_CommonInit+0x4c>)
 8000fba:	4013      	ands	r3, r2
 8000fbc:	60fb      	str	r3, [r7, #12]
 8000fbe:	687b      	ldr	r3, [r7, #4]
 8000fc0:	681a      	ldr	r2, [r3, #0]
 8000fc2:	687b      	ldr	r3, [r7, #4]
 8000fc4:	685b      	ldr	r3, [r3, #4]
 8000fc6:	431a      	orrs	r2, r3
 8000fc8:	687b      	ldr	r3, [r7, #4]
 8000fca:	689b      	ldr	r3, [r3, #8]
 8000fcc:	431a      	orrs	r2, r3
 8000fce:	687b      	ldr	r3, [r7, #4]
 8000fd0:	68db      	ldr	r3, [r3, #12]
 8000fd2:	4313      	orrs	r3, r2
 8000fd4:	68fa      	ldr	r2, [r7, #12]
 8000fd6:	4313      	orrs	r3, r2
 8000fd8:	60fb      	str	r3, [r7, #12]
 8000fda:	4a04      	ldr	r2, [pc, #16]	; (8000fec <ADC_CommonInit+0x48>)
 8000fdc:	68fb      	ldr	r3, [r7, #12]
 8000fde:	6053      	str	r3, [r2, #4]
 8000fe0:	bf00      	nop
 8000fe2:	3714      	adds	r7, #20
 8000fe4:	46bd      	mov	sp, r7
 8000fe6:	f85d 7b04 	ldr.w	r7, [sp], #4
 8000fea:	4770      	bx	lr
 8000fec:	40012300 	.word	0x40012300
 8000ff0:	fffc30e0 	.word	0xfffc30e0

08000ff4 <ADC_Cmd>:
 8000ff4:	b480      	push	{r7}
 8000ff6:	b083      	sub	sp, #12
 8000ff8:	af00      	add	r7, sp, #0
 8000ffa:	6078      	str	r0, [r7, #4]
 8000ffc:	460b      	mov	r3, r1
 8000ffe:	70fb      	strb	r3, [r7, #3]
 8001000:	78fb      	ldrb	r3, [r7, #3]
 8001002:	2b00      	cmp	r3, #0
 8001004:	d006      	beq.n	8001014 <ADC_Cmd+0x20>
 8001006:	687b      	ldr	r3, [r7, #4]
 8001008:	689b      	ldr	r3, [r3, #8]
 800100a:	f043 0201 	orr.w	r2, r3, #1
 800100e:	687b      	ldr	r3, [r7, #4]
 8001010:	609a      	str	r2, [r3, #8]
 8001012:	e005      	b.n	8001020 <ADC_Cmd+0x2c>
 8001014:	687b      	ldr	r3, [r7, #4]
 8001016:	689b      	ldr	r3, [r3, #8]
 8001018:	f023 0201 	bic.w	r2, r3, #1
 800101c:	687b      	ldr	r3, [r7, #4]
 800101e:	609a      	str	r2, [r3, #8]
 8001020:	bf00      	nop
 8001022:	370c      	adds	r7, #12
 8001024:	46bd      	mov	sp, r7
 8001026:	f85d 7b04 	ldr.w	r7, [sp], #4
 800102a:	4770      	bx	lr

0800102c <ADC_RegularChannelConfig>:
 800102c:	b480      	push	{r7}
 800102e:	b085      	sub	sp, #20
 8001030:	af00      	add	r7, sp, #0
 8001032:	6078      	str	r0, [r7, #4]
 8001034:	4608      	mov	r0, r1
 8001036:	4611      	mov	r1, r2
 8001038:	461a      	mov	r2, r3
 800103a:	4603      	mov	r3, r0
 800103c:	70fb      	strb	r3, [r7, #3]
 800103e:	460b      	mov	r3, r1
 8001040:	70bb      	strb	r3, [r7, #2]
 8001042:	4613      	mov	r3, r2
 8001044:	707b      	strb	r3, [r7, #1]
 8001046:	2300      	movs	r3, #0
 8001048:	60fb      	str	r3, [r7, #12]
 800104a:	2300      	movs	r3, #0
 800104c:	60bb      	str	r3, [r7, #8]
 800104e:	78fb      	ldrb	r3, [r7, #3]
 8001050:	2b09      	cmp	r3, #9
 8001052:	d923      	bls.n	800109c <ADC_RegularChannelConfig+0x70>
 8001054:	687b      	ldr	r3, [r7, #4]
 8001056:	68db      	ldr	r3, [r3, #12]
 8001058:	60fb      	str	r3, [r7, #12]
 800105a:	78fb      	ldrb	r3, [r7, #3]
 800105c:	f1a3 020a 	sub.w	r2, r3, #10
 8001060:	4613      	mov	r3, r2
 8001062:	005b      	lsls	r3, r3, #1
 8001064:	4413      	add	r3, r2
 8001066:	2207      	movs	r2, #7
 8001068:	fa02 f303 	lsl.w	r3, r2, r3
 800106c:	60bb      	str	r3, [r7, #8]
 800106e:	68bb      	ldr	r3, [r7, #8]
 8001070:	43db      	mvns	r3, r3
 8001072:	68fa      	ldr	r2, [r7, #12]
 8001074:	4013      	ands	r3, r2
 8001076:	60fb      	str	r3, [r7, #12]
 8001078:	7879      	ldrb	r1, [r7, #1]
 800107a:	78fb      	ldrb	r3, [r7, #3]
 800107c:	f1a3 020a 	sub.w	r2, r3, #10
 8001080:	4613      	mov	r3, r2
 8001082:	005b      	lsls	r3, r3, #1
 8001084:	4413      	add	r3, r2
 8001086:	fa01 f303 	lsl.w	r3, r1, r3
 800108a:	60bb      	str	r3, [r7, #8]
 800108c:	68fa      	ldr	r2, [r7, #12]
 800108e:	68bb      	ldr	r3, [r7, #8]
 8001090:	4313      	orrs	r3, r2
 8001092:	60fb      	str	r3, [r7, #12]
 8001094:	687b      	ldr	r3, [r7, #4]
 8001096:	68fa      	ldr	r2, [r7, #12]
 8001098:	60da      	str	r2, [r3, #12]
 800109a:	e01e      	b.n	80010da <ADC_RegularChannelConfig+0xae>
 800109c:	687b      	ldr	r3, [r7, #4]
 800109e:	691b      	ldr	r3, [r3, #16]
 80010a0:	60fb      	str	r3, [r7, #12]
 80010a2:	78fa      	ldrb	r2, [r7, #3]
 80010a4:	4613      	mov	r3, r2
 80010a6:	005b      	lsls	r3, r3, #1
 80010a8:	4413      	add	r3, r2
 80010aa:	2207      	movs	r2, #7
 80010ac:	fa02 f303 	lsl.w	r3, r2, r3
 80010b0:	60bb      	str	r3, [r7, #8]
 80010b2:	68bb      	ldr	r3, [r7, #8]
 80010b4:	43db      	mvns	r3, r3
 80010b6:	68fa      	ldr	r2, [r7, #12]
 80010b8:	4013      	ands	r3, r2
 80010ba:	60fb      	str	r3, [r7, #12]
 80010bc:	7879      	ldrb	r1, [r7, #1]
 80010be:	78fa      	ldrb	r2, [r7, #3]
 80010c0:	4613      	mov	r3, r2
 80010c2:	005b      	lsls	r3, r3, #1
 80010c4:	4413      	add	r3, r2
 80010c6:	fa01 f303 	lsl.w	r3, r1, r3
 80010ca:	60bb      	str	r3, [r7, #8]
 80010cc:	68fa      	ldr	r2, [r7, #12]
 80010ce:	68bb      	ldr	r3, [r7, #8]
 80010d0:	4313      	orrs	r3, r2
 80010d2:	60fb      	str	r3, [r7, #12]
 80010d4:	687b      	ldr	r3, [r7, #4]
 80010d6:	68fa      	ldr	r2, [r7, #12]
 80010d8:	611a      	str	r2, [r3, #16]
 80010da:	78bb      	ldrb	r3, [r7, #2]
 80010dc:	2b06      	cmp	r3, #6
 80010de:	d821      	bhi.n	8001124 <ADC_RegularChannelConfig+0xf8>
 80010e0:	687b      	ldr	r3, [r7, #4]
 80010e2:	6b5b      	ldr	r3, [r3, #52]	; 0x34
 80010e4:	60fb      	str	r3, [r7, #12]
 80010e6:	78bb      	ldrb	r3, [r7, #2]
 80010e8:	1e5a      	subs	r2, r3, #1
 80010ea:	4613      	mov	r3, r2
 80010ec:	009b      	lsls	r3, r3, #2
 80010ee:	4413      	add	r3, r2
 80010f0:	221f      	movs	r2, #31
 80010f2:	fa02 f303 	lsl.w	r3, r2, r3
 80010f6:	60bb      	str	r3, [r7, #8]
 80010f8:	68bb      	ldr	r3, [r7, #8]
 80010fa:	43db      	mvns	r3, r3
 80010fc:	68fa      	ldr	r2, [r7, #12]
 80010fe:	4013      	ands	r3, r2
 8001100:	60fb      	str	r3, [r7, #12]
 8001102:	78f9      	ldrb	r1, [r7, #3]
 8001104:	78bb      	ldrb	r3, [r7, #2]
 8001106:	1e5a      	subs	r2, r3, #1
 8001108:	4613      	mov	r3, r2
 800110a:	009b      	lsls	r3, r3, #2
 800110c:	4413      	add	r3, r2
 800110e:	fa01 f303 	lsl.w	r3, r1, r3
 8001112:	60bb      	str	r3, [r7, #8]
 8001114:	68fa      	ldr	r2, [r7, #12]
 8001116:	68bb      	ldr	r3, [r7, #8]
 8001118:	4313      	orrs	r3, r2
 800111a:	60fb      	str	r3, [r7, #12]
 800111c:	687b      	ldr	r3, [r7, #4]
 800111e:	68fa      	ldr	r2, [r7, #12]
 8001120:	635a      	str	r2, [r3, #52]	; 0x34
 8001122:	e047      	b.n	80011b4 <ADC_RegularChannelConfig+0x188>
 8001124:	78bb      	ldrb	r3, [r7, #2]
 8001126:	2b0c      	cmp	r3, #12
 8001128:	d821      	bhi.n	800116e <ADC_RegularChannelConfig+0x142>
 800112a:	687b      	ldr	r3, [r7, #4]
 800112c:	6b1b      	ldr	r3, [r3, #48]	; 0x30
 800112e:	60fb      	str	r3, [r7, #12]
 8001130:	78bb      	ldrb	r3, [r7, #2]
 8001132:	1fda      	subs	r2, r3, #7
 8001134:	4613      	mov	r3, r2
 8001136:	009b      	lsls	r3, r3, #2
 8001138:	4413      	add	r3, r2
 800113a:	221f      	movs	r2, #31
 800113c:	fa02 f303 	lsl.w	r3, r2, r3
 8001140:	60bb      	str	r3, [r7, #8]
 8001142:	68bb      	ldr	r3, [r7, #8]
 8001144:	43db      	mvns	r3, r3
 8001146:	68fa      	ldr	r2, [r7, #12]
 8001148:	4013      	ands	r3, r2
 800114a:	60fb      	str	r3, [r7, #12]
 800114c:	78f9      	ldrb	r1, [r7, #3]
 800114e:	78bb      	ldrb	r3, [r7, #2]
 8001150:	1fda      	subs	r2, r3, #7
 8001152:	4613      	mov	r3, r2
 8001154:	009b      	lsls	r3, r3, #2
 8001156:	4413      	add	r3, r2
 8001158:	fa01 f303 	lsl.w	r3, r1, r3
 800115c:	60bb      	str	r3, [r7, #8]
 800115e:	68fa      	ldr	r2, [r7, #12]
 8001160:	68bb      	ldr	r3, [r7, #8]
 8001162:	4313      	orrs	r3, r2
 8001164:	60fb      	str	r3, [r7, #12]
 8001166:	687b      	ldr	r3, [r7, #4]
 8001168:	68fa      	ldr	r2, [r7, #12]
 800116a:	631a      	str	r2, [r3, #48]	; 0x30
 800116c:	e022      	b.n	80011b4 <ADC_RegularChannelConfig+0x188>
 800116e:	687b      	ldr	r3, [r7, #4]
 8001170:	6adb      	ldr	r3, [r3, #44]	; 0x2c
 8001172:	60fb      	str	r3, [r7, #12]
 8001174:	78bb      	ldrb	r3, [r7, #2]
 8001176:	f1a3 020d 	sub.w	r2, r3, #13
 800117a:	4613      	mov	r3, r2
 800117c:	009b      	lsls	r3, r3, #2
 800117e:	4413      	add	r3, r2
 8001180:	221f      	movs	r2, #31
 8001182:	fa02 f303 	lsl.w	r3, r2, r3
 8001186:	60bb      	str	r3, [r7, #8]
 8001188:	68bb      	ldr	r3, [r7, #8]
 800118a:	43db      	mvns	r3, r3
 800118c:	68fa      	ldr	r2, [r7, #12]
 800118e:	4013      	ands	r3, r2
 8001190:	60fb      	str	r3, [r7, #12]
 8001192:	78f9      	ldrb	r1, [r7, #3]
 8001194:	78bb      	ldrb	r3, [r7, #2]
 8001196:	f1a3 020d 	sub.w	r2, r3, #13
 800119a:	4613      	mov	r3, r2
 800119c:	009b      	lsls	r3, r3, #2
 800119e:	4413      	add	r3, r2
 80011a0:	fa01 f303 	lsl.w	r3, r1, r3
 80011a4:	60bb      	str	r3, [r7, #8]
 80011a6:	68fa      	ldr	r2, [r7, #12]
 80011a8:	68bb      	ldr	r3, [r7, #8]
 80011aa:	4313      	orrs	r3, r2
 80011ac:	60fb      	str	r3, [r7, #12]
 80011ae:	687b      	ldr	r3, [r7, #4]
 80011b0:	68fa      	ldr	r2, [r7, #12]
 80011b2:	62da      	str	r2, [r3, #44]	; 0x2c
 80011b4:	bf00      	nop
 80011b6:	3714      	adds	r7, #20
 80011b8:	46bd      	mov	sp, r7
 80011ba:	f85d 7b04 	ldr.w	r7, [sp], #4
 80011be:	4770      	bx	lr

080011c0 <ADC_SoftwareStartConv>:
 80011c0:	b480      	push	{r7}
 80011c2:	b083      	sub	sp, #12
 80011c4:	af00      	add	r7, sp, #0
 80011c6:	6078      	str	r0, [r7, #4]
 80011c8:	687b      	ldr	r3, [r7, #4]
 80011ca:	689b      	ldr	r3, [r3, #8]
 80011cc:	f043 4280 	orr.w	r2, r3, #1073741824	; 0x40000000
 80011d0:	687b      	ldr	r3, [r7, #4]
 80011d2:	609a      	str	r2, [r3, #8]
 80011d4:	bf00      	nop
 80011d6:	370c      	adds	r7, #12
 80011d8:	46bd      	mov	sp, r7
 80011da:	f85d 7b04 	ldr.w	r7, [sp], #4
 80011de:	4770      	bx	lr

080011e0 <ADC_EOCOnEachRegularChannelCmd>:
 80011e0:	b480      	push	{r7}
 80011e2:	b083      	sub	sp, #12
 80011e4:	af00      	add	r7, sp, #0
 80011e6:	6078      	str	r0, [r7, #4]
 80011e8:	460b      	mov	r3, r1
 80011ea:	70fb      	strb	r3, [r7, #3]
 80011ec:	78fb      	ldrb	r3, [r7, #3]
 80011ee:	2b00      	cmp	r3, #0
 80011f0:	d006      	beq.n	8001200 <ADC_EOCOnEachRegularChannelCmd+0x20>
 80011f2:	687b      	ldr	r3, [r7, #4]
 80011f4:	689b      	ldr	r3, [r3, #8]
 80011f6:	f443 6280 	orr.w	r2, r3, #1024	; 0x400
 80011fa:	687b      	ldr	r3, [r7, #4]
 80011fc:	609a      	str	r2, [r3, #8]
 80011fe:	e005      	b.n	800120c <ADC_EOCOnEachRegularChannelCmd+0x2c>
 8001200:	687b      	ldr	r3, [r7, #4]
 8001202:	689b      	ldr	r3, [r3, #8]
 8001204:	f423 6280 	bic.w	r2, r3, #1024	; 0x400
 8001208:	687b      	ldr	r3, [r7, #4]
 800120a:	609a      	str	r2, [r3, #8]
 800120c:	bf00      	nop
 800120e:	370c      	adds	r7, #12
 8001210:	46bd      	mov	sp, r7
 8001212:	f85d 7b04 	ldr.w	r7, [sp], #4
 8001216:	4770      	bx	lr

08001218 <ADC_GetConversionValue>:
 8001218:	b480      	push	{r7}
 800121a:	b083      	sub	sp, #12
 800121c:	af00      	add	r7, sp, #0
 800121e:	6078      	str	r0, [r7, #4]
 8001220:	687b      	ldr	r3, [r7, #4]
 8001222:	6cdb      	ldr	r3, [r3, #76]	; 0x4c
 8001224:	b29b      	uxth	r3, r3
 8001226:	4618      	mov	r0, r3
 8001228:	370c      	adds	r7, #12
 800122a:	46bd      	mov	sp, r7
 800122c:	f85d 7b04 	ldr.w	r7, [sp], #4
 8001230:	4770      	bx	lr

08001232 <GPIO_Init>:
 8001232:	b480      	push	{r7}
 8001234:	b087      	sub	sp, #28
 8001236:	af00      	add	r7, sp, #0
 8001238:	6078      	str	r0, [r7, #4]
 800123a:	6039      	str	r1, [r7, #0]
 800123c:	2300      	movs	r3, #0
 800123e:	617b      	str	r3, [r7, #20]
 8001240:	2300      	movs	r3, #0
 8001242:	613b      	str	r3, [r7, #16]
 8001244:	2300      	movs	r3, #0
 8001246:	60fb      	str	r3, [r7, #12]
 8001248:	2300      	movs	r3, #0
 800124a:	617b      	str	r3, [r7, #20]
 800124c:	e076      	b.n	800133c <GPIO_Init+0x10a>
 800124e:	2201      	movs	r2, #1
 8001250:	697b      	ldr	r3, [r7, #20]
 8001252:	fa02 f303 	lsl.w	r3, r2, r3
 8001256:	613b      	str	r3, [r7, #16]
 8001258:	683b      	ldr	r3, [r7, #0]
 800125a:	681b      	ldr	r3, [r3, #0]
 800125c:	693a      	ldr	r2, [r7, #16]
 800125e:	4013      	ands	r3, r2
 8001260:	60fb      	str	r3, [r7, #12]
 8001262:	68fa      	ldr	r2, [r7, #12]
 8001264:	693b      	ldr	r3, [r7, #16]
 8001266:	429a      	cmp	r2, r3
 8001268:	d165      	bne.n	8001336 <GPIO_Init+0x104>
 800126a:	687b      	ldr	r3, [r7, #4]
 800126c:	681a      	ldr	r2, [r3, #0]
 800126e:	697b      	ldr	r3, [r7, #20]
 8001270:	005b      	lsls	r3, r3, #1
 8001272:	2103      	movs	r1, #3
 8001274:	fa01 f303 	lsl.w	r3, r1, r3
 8001278:	43db      	mvns	r3, r3
 800127a:	401a      	ands	r2, r3
 800127c:	687b      	ldr	r3, [r7, #4]
 800127e:	601a      	str	r2, [r3, #0]
 8001280:	687b      	ldr	r3, [r7, #4]
 8001282:	681a      	ldr	r2, [r3, #0]
 8001284:	683b      	ldr	r3, [r7, #0]
 8001286:	791b      	ldrb	r3, [r3, #4]
 8001288:	4619      	mov	r1, r3
 800128a:	697b      	ldr	r3, [r7, #20]
 800128c:	005b      	lsls	r3, r3, #1
 800128e:	fa01 f303 	lsl.w	r3, r1, r3
 8001292:	431a      	orrs	r2, r3
 8001294:	687b      	ldr	r3, [r7, #4]
 8001296:	601a      	str	r2, [r3, #0]
 8001298:	683b      	ldr	r3, [r7, #0]
 800129a:	791b      	ldrb	r3, [r3, #4]
 800129c:	2b01      	cmp	r3, #1
 800129e:	d003      	beq.n	80012a8 <GPIO_Init+0x76>
 80012a0:	683b      	ldr	r3, [r7, #0]
 80012a2:	791b      	ldrb	r3, [r3, #4]
 80012a4:	2b02      	cmp	r3, #2
 80012a6:	d12e      	bne.n	8001306 <GPIO_Init+0xd4>
 80012a8:	687b      	ldr	r3, [r7, #4]
 80012aa:	689a      	ldr	r2, [r3, #8]
 80012ac:	697b      	ldr	r3, [r7, #20]
 80012ae:	005b      	lsls	r3, r3, #1
 80012b0:	2103      	movs	r1, #3
 80012b2:	fa01 f303 	lsl.w	r3, r1, r3
 80012b6:	43db      	mvns	r3, r3
 80012b8:	401a      	ands	r2, r3
 80012ba:	687b      	ldr	r3, [r7, #4]
 80012bc:	609a      	str	r2, [r3, #8]
 80012be:	687b      	ldr	r3, [r7, #4]
 80012c0:	689a      	ldr	r2, [r3, #8]
 80012c2:	683b      	ldr	r3, [r7, #0]
 80012c4:	795b      	ldrb	r3, [r3, #5]
 80012c6:	4619      	mov	r1, r3
 80012c8:	697b      	ldr	r3, [r7, #20]
 80012ca:	005b      	lsls	r3, r3, #1
 80012cc:	fa01 f303 	lsl.w	r3, r1, r3
 80012d0:	431a      	orrs	r2, r3
 80012d2:	687b      	ldr	r3, [r7, #4]
 80012d4:	609a      	str	r2, [r3, #8]
 80012d6:	687b      	ldr	r3, [r7, #4]
 80012d8:	685a      	ldr	r2, [r3, #4]
 80012da:	697b      	ldr	r3, [r7, #20]
 80012dc:	b29b      	uxth	r3, r3
 80012de:	4619      	mov	r1, r3
 80012e0:	2301      	movs	r3, #1
 80012e2:	408b      	lsls	r3, r1
 80012e4:	43db      	mvns	r3, r3
 80012e6:	401a      	ands	r2, r3
 80012e8:	687b      	ldr	r3, [r7, #4]
 80012ea:	605a      	str	r2, [r3, #4]
 80012ec:	687b      	ldr	r3, [r7, #4]
 80012ee:	685b      	ldr	r3, [r3, #4]
 80012f0:	683a      	ldr	r2, [r7, #0]
 80012f2:	7992      	ldrb	r2, [r2, #6]
 80012f4:	4611      	mov	r1, r2
 80012f6:	697a      	ldr	r2, [r7, #20]
 80012f8:	b292      	uxth	r2, r2
 80012fa:	fa01 f202 	lsl.w	r2, r1, r2
 80012fe:	b292      	uxth	r2, r2
 8001300:	431a      	orrs	r2, r3
 8001302:	687b      	ldr	r3, [r7, #4]
 8001304:	605a      	str	r2, [r3, #4]
 8001306:	687b      	ldr	r3, [r7, #4]
 8001308:	68da      	ldr	r2, [r3, #12]
 800130a:	697b      	ldr	r3, [r7, #20]
 800130c:	b29b      	uxth	r3, r3
 800130e:	005b      	lsls	r3, r3, #1
 8001310:	2103      	movs	r1, #3
 8001312:	fa01 f303 	lsl.w	r3, r1, r3
 8001316:	43db      	mvns	r3, r3
 8001318:	401a      	ands	r2, r3
 800131a:	687b      	ldr	r3, [r7, #4]
 800131c:	60da      	str	r2, [r3, #12]
 800131e:	687b      	ldr	r3, [r7, #4]
 8001320:	68da      	ldr	r2, [r3, #12]
 8001322:	683b      	ldr	r3, [r7, #0]
 8001324:	79db      	ldrb	r3, [r3, #7]
 8001326:	4619      	mov	r1, r3
 8001328:	697b      	ldr	r3, [r7, #20]
 800132a:	005b      	lsls	r3, r3, #1
 800132c:	fa01 f303 	lsl.w	r3, r1, r3
 8001330:	431a      	orrs	r2, r3
 8001332:	687b      	ldr	r3, [r7, #4]
 8001334:	60da      	str	r2, [r3, #12]
 8001336:	697b      	ldr	r3, [r7, #20]
 8001338:	3301      	adds	r3, #1
 800133a:	617b      	str	r3, [r7, #20]
 800133c:	697b      	ldr	r3, [r7, #20]
 800133e:	2b0f      	cmp	r3, #15
 8001340:	d985      	bls.n	800124e <GPIO_Init+0x1c>
 8001342:	bf00      	nop
 8001344:	371c      	adds	r7, #28
 8001346:	46bd      	mov	sp, r7
 8001348:	f85d 7b04 	ldr.w	r7, [sp], #4
 800134c:	4770      	bx	lr

0800134e <GPIO_PinAFConfig>:
 800134e:	b480      	push	{r7}
 8001350:	b085      	sub	sp, #20
 8001352:	af00      	add	r7, sp, #0
 8001354:	6078      	str	r0, [r7, #4]
 8001356:	460b      	mov	r3, r1
 8001358:	807b      	strh	r3, [r7, #2]
 800135a:	4613      	mov	r3, r2
 800135c:	707b      	strb	r3, [r7, #1]
 800135e:	2300      	movs	r3, #0
 8001360:	60fb      	str	r3, [r7, #12]
 8001362:	2300      	movs	r3, #0
 8001364:	60bb      	str	r3, [r7, #8]
 8001366:	787a      	ldrb	r2, [r7, #1]
 8001368:	887b      	ldrh	r3, [r7, #2]
 800136a:	f003 0307 	and.w	r3, r3, #7
 800136e:	009b      	lsls	r3, r3, #2
 8001370:	fa02 f303 	lsl.w	r3, r2, r3
 8001374:	60fb      	str	r3, [r7, #12]
 8001376:	887b      	ldrh	r3, [r7, #2]
 8001378:	08db      	lsrs	r3, r3, #3
 800137a:	b29b      	uxth	r3, r3
 800137c:	461a      	mov	r2, r3
 800137e:	687b      	ldr	r3, [r7, #4]
 8001380:	3208      	adds	r2, #8
 8001382:	f853 2022 	ldr.w	r2, [r3, r2, lsl #2]
 8001386:	887b      	ldrh	r3, [r7, #2]
 8001388:	f003 0307 	and.w	r3, r3, #7
 800138c:	009b      	lsls	r3, r3, #2
 800138e:	210f      	movs	r1, #15
 8001390:	fa01 f303 	lsl.w	r3, r1, r3
 8001394:	43db      	mvns	r3, r3
 8001396:	8879      	ldrh	r1, [r7, #2]
 8001398:	08c9      	lsrs	r1, r1, #3
 800139a:	b289      	uxth	r1, r1
 800139c:	4608      	mov	r0, r1
 800139e:	ea02 0103 	and.w	r1, r2, r3
 80013a2:	687b      	ldr	r3, [r7, #4]
 80013a4:	f100 0208 	add.w	r2, r0, #8
 80013a8:	f843 1022 	str.w	r1, [r3, r2, lsl #2]
 80013ac:	887b      	ldrh	r3, [r7, #2]
 80013ae:	08db      	lsrs	r3, r3, #3
 80013b0:	b29b      	uxth	r3, r3
 80013b2:	461a      	mov	r2, r3
 80013b4:	687b      	ldr	r3, [r7, #4]
 80013b6:	3208      	adds	r2, #8
 80013b8:	f853 3022 	ldr.w	r3, [r3, r2, lsl #2]
 80013bc:	68fa      	ldr	r2, [r7, #12]
 80013be:	4313      	orrs	r3, r2
 80013c0:	60bb      	str	r3, [r7, #8]
 80013c2:	887b      	ldrh	r3, [r7, #2]
 80013c4:	08db      	lsrs	r3, r3, #3
 80013c6:	b29b      	uxth	r3, r3
 80013c8:	461a      	mov	r2, r3
 80013ca:	687b      	ldr	r3, [r7, #4]
 80013cc:	3208      	adds	r2, #8
 80013ce:	68b9      	ldr	r1, [r7, #8]
 80013d0:	f843 1022 	str.w	r1, [r3, r2, lsl #2]
 80013d4:	bf00      	nop
 80013d6:	3714      	adds	r7, #20
 80013d8:	46bd      	mov	sp, r7
 80013da:	f85d 7b04 	ldr.w	r7, [sp], #4
 80013de:	4770      	bx	lr

080013e0 <RCC_GetClocksFreq>:
 80013e0:	b480      	push	{r7}
 80013e2:	b089      	sub	sp, #36	; 0x24
 80013e4:	af00      	add	r7, sp, #0
 80013e6:	6078      	str	r0, [r7, #4]
 80013e8:	2300      	movs	r3, #0
 80013ea:	61bb      	str	r3, [r7, #24]
 80013ec:	2300      	movs	r3, #0
 80013ee:	617b      	str	r3, [r7, #20]
 80013f0:	2300      	movs	r3, #0
 80013f2:	61fb      	str	r3, [r7, #28]
 80013f4:	2302      	movs	r3, #2
 80013f6:	613b      	str	r3, [r7, #16]
 80013f8:	2300      	movs	r3, #0
 80013fa:	60fb      	str	r3, [r7, #12]
 80013fc:	2302      	movs	r3, #2
 80013fe:	60bb      	str	r3, [r7, #8]
 8001400:	4b47      	ldr	r3, [pc, #284]	; (8001520 <RCC_GetClocksFreq+0x140>)
 8001402:	689b      	ldr	r3, [r3, #8]
 8001404:	f003 030c 	and.w	r3, r3, #12
 8001408:	61bb      	str	r3, [r7, #24]
 800140a:	69bb      	ldr	r3, [r7, #24]
 800140c:	2b04      	cmp	r3, #4
 800140e:	d007      	beq.n	8001420 <RCC_GetClocksFreq+0x40>
 8001410:	2b08      	cmp	r3, #8
 8001412:	d009      	beq.n	8001428 <RCC_GetClocksFreq+0x48>
 8001414:	2b00      	cmp	r3, #0
 8001416:	d13d      	bne.n	8001494 <RCC_GetClocksFreq+0xb4>
 8001418:	687b      	ldr	r3, [r7, #4]
 800141a:	4a42      	ldr	r2, [pc, #264]	; (8001524 <RCC_GetClocksFreq+0x144>)
 800141c:	601a      	str	r2, [r3, #0]
 800141e:	e03d      	b.n	800149c <RCC_GetClocksFreq+0xbc>
 8001420:	687b      	ldr	r3, [r7, #4]
 8001422:	4a41      	ldr	r2, [pc, #260]	; (8001528 <RCC_GetClocksFreq+0x148>)
 8001424:	601a      	str	r2, [r3, #0]
 8001426:	e039      	b.n	800149c <RCC_GetClocksFreq+0xbc>
 8001428:	4b3d      	ldr	r3, [pc, #244]	; (8001520 <RCC_GetClocksFreq+0x140>)
 800142a:	685b      	ldr	r3, [r3, #4]
 800142c:	0d9b      	lsrs	r3, r3, #22
 800142e:	f003 0301 	and.w	r3, r3, #1
 8001432:	60fb      	str	r3, [r7, #12]
 8001434:	4b3a      	ldr	r3, [pc, #232]	; (8001520 <RCC_GetClocksFreq+0x140>)
 8001436:	685b      	ldr	r3, [r3, #4]
 8001438:	f003 033f 	and.w	r3, r3, #63	; 0x3f
 800143c:	60bb      	str	r3, [r7, #8]
 800143e:	68fb      	ldr	r3, [r7, #12]
 8001440:	2b00      	cmp	r3, #0
 8001442:	d00c      	beq.n	800145e <RCC_GetClocksFreq+0x7e>
 8001444:	4a38      	ldr	r2, [pc, #224]	; (8001528 <RCC_GetClocksFreq+0x148>)
 8001446:	68bb      	ldr	r3, [r7, #8]
 8001448:	fbb2 f3f3 	udiv	r3, r2, r3
 800144c:	4a34      	ldr	r2, [pc, #208]	; (8001520 <RCC_GetClocksFreq+0x140>)
 800144e:	6852      	ldr	r2, [r2, #4]
 8001450:	0992      	lsrs	r2, r2, #6
 8001452:	f3c2 0208 	ubfx	r2, r2, #0, #9
 8001456:	fb02 f303 	mul.w	r3, r2, r3
 800145a:	61fb      	str	r3, [r7, #28]
 800145c:	e00b      	b.n	8001476 <RCC_GetClocksFreq+0x96>
 800145e:	4a31      	ldr	r2, [pc, #196]	; (8001524 <RCC_GetClocksFreq+0x144>)
 8001460:	68bb      	ldr	r3, [r7, #8]
 8001462:	fbb2 f3f3 	udiv	r3, r2, r3
 8001466:	4a2e      	ldr	r2, [pc, #184]	; (8001520 <RCC_GetClocksFreq+0x140>)
 8001468:	6852      	ldr	r2, [r2, #4]
 800146a:	0992      	lsrs	r2, r2, #6
 800146c:	f3c2 0208 	ubfx	r2, r2, #0, #9
 8001470:	fb02 f303 	mul.w	r3, r2, r3
 8001474:	61fb      	str	r3, [r7, #28]
 8001476:	4b2a      	ldr	r3, [pc, #168]	; (8001520 <RCC_GetClocksFreq+0x140>)
 8001478:	685b      	ldr	r3, [r3, #4]
 800147a:	0c1b      	lsrs	r3, r3, #16
 800147c:	f003 0303 	and.w	r3, r3, #3
 8001480:	3301      	adds	r3, #1
 8001482:	005b      	lsls	r3, r3, #1
 8001484:	613b      	str	r3, [r7, #16]
 8001486:	69fa      	ldr	r2, [r7, #28]
 8001488:	693b      	ldr	r3, [r7, #16]
 800148a:	fbb2 f2f3 	udiv	r2, r2, r3
 800148e:	687b      	ldr	r3, [r7, #4]
 8001490:	601a      	str	r2, [r3, #0]
 8001492:	e003      	b.n	800149c <RCC_GetClocksFreq+0xbc>
 8001494:	687b      	ldr	r3, [r7, #4]
 8001496:	4a23      	ldr	r2, [pc, #140]	; (8001524 <RCC_GetClocksFreq+0x144>)
 8001498:	601a      	str	r2, [r3, #0]
 800149a:	bf00      	nop
 800149c:	4b20      	ldr	r3, [pc, #128]	; (8001520 <RCC_GetClocksFreq+0x140>)
 800149e:	689b      	ldr	r3, [r3, #8]
 80014a0:	f003 03f0 	and.w	r3, r3, #240	; 0xf0
 80014a4:	61bb      	str	r3, [r7, #24]
 80014a6:	69bb      	ldr	r3, [r7, #24]
 80014a8:	091b      	lsrs	r3, r3, #4
 80014aa:	61bb      	str	r3, [r7, #24]
 80014ac:	4a1f      	ldr	r2, [pc, #124]	; (800152c <RCC_GetClocksFreq+0x14c>)
 80014ae:	69bb      	ldr	r3, [r7, #24]
 80014b0:	4413      	add	r3, r2
 80014b2:	781b      	ldrb	r3, [r3, #0]
 80014b4:	b2db      	uxtb	r3, r3
 80014b6:	617b      	str	r3, [r7, #20]
 80014b8:	687b      	ldr	r3, [r7, #4]
 80014ba:	681a      	ldr	r2, [r3, #0]
 80014bc:	697b      	ldr	r3, [r7, #20]
 80014be:	40da      	lsrs	r2, r3
 80014c0:	687b      	ldr	r3, [r7, #4]
 80014c2:	605a      	str	r2, [r3, #4]
 80014c4:	4b16      	ldr	r3, [pc, #88]	; (8001520 <RCC_GetClocksFreq+0x140>)
 80014c6:	689b      	ldr	r3, [r3, #8]
 80014c8:	f403 53e0 	and.w	r3, r3, #7168	; 0x1c00
 80014cc:	61bb      	str	r3, [r7, #24]
 80014ce:	69bb      	ldr	r3, [r7, #24]
 80014d0:	0a9b      	lsrs	r3, r3, #10
 80014d2:	61bb      	str	r3, [r7, #24]
 80014d4:	4a15      	ldr	r2, [pc, #84]	; (800152c <RCC_GetClocksFreq+0x14c>)
 80014d6:	69bb      	ldr	r3, [r7, #24]
 80014d8:	4413      	add	r3, r2
 80014da:	781b      	ldrb	r3, [r3, #0]
 80014dc:	b2db      	uxtb	r3, r3
 80014de:	617b      	str	r3, [r7, #20]
 80014e0:	687b      	ldr	r3, [r7, #4]
 80014e2:	685a      	ldr	r2, [r3, #4]
 80014e4:	697b      	ldr	r3, [r7, #20]
 80014e6:	40da      	lsrs	r2, r3
 80014e8:	687b      	ldr	r3, [r7, #4]
 80014ea:	609a      	str	r2, [r3, #8]
 80014ec:	4b0c      	ldr	r3, [pc, #48]	; (8001520 <RCC_GetClocksFreq+0x140>)
 80014ee:	689b      	ldr	r3, [r3, #8]
 80014f0:	f403 4360 	and.w	r3, r3, #57344	; 0xe000
 80014f4:	61bb      	str	r3, [r7, #24]
 80014f6:	69bb      	ldr	r3, [r7, #24]
 80014f8:	0b5b      	lsrs	r3, r3, #13
 80014fa:	61bb      	str	r3, [r7, #24]
 80014fc:	4a0b      	ldr	r2, [pc, #44]	; (800152c <RCC_GetClocksFreq+0x14c>)
 80014fe:	69bb      	ldr	r3, [r7, #24]
 8001500:	4413      	add	r3, r2
 8001502:	781b      	ldrb	r3, [r3, #0]
 8001504:	b2db      	uxtb	r3, r3
 8001506:	617b      	str	r3, [r7, #20]
 8001508:	687b      	ldr	r3, [r7, #4]
 800150a:	685a      	ldr	r2, [r3, #4]
 800150c:	697b      	ldr	r3, [r7, #20]
 800150e:	40da      	lsrs	r2, r3
 8001510:	687b      	ldr	r3, [r7, #4]
 8001512:	60da      	str	r2, [r3, #12]
 8001514:	bf00      	nop
 8001516:	3724      	adds	r7, #36	; 0x24
 8001518:	46bd      	mov	sp, r7
 800151a:	f85d 7b04 	ldr.w	r7, [sp], #4
 800151e:	4770      	bx	lr
 8001520:	40023800 	.word	0x40023800
 8001524:	00f42400 	.word	0x00f42400
 8001528:	017d7840 	.word	0x017d7840
 800152c:	20000014 	.word	0x20000014

08001530 <RCC_AHB1PeriphClockCmd>:
 8001530:	b480      	push	{r7}
 8001532:	b083      	sub	sp, #12
 8001534:	af00      	add	r7, sp, #0
 8001536:	6078      	str	r0, [r7, #4]
 8001538:	460b      	mov	r3, r1
 800153a:	70fb      	strb	r3, [r7, #3]
 800153c:	78fb      	ldrb	r3, [r7, #3]
 800153e:	2b00      	cmp	r3, #0
 8001540:	d006      	beq.n	8001550 <RCC_AHB1PeriphClockCmd+0x20>
 8001542:	4b0a      	ldr	r3, [pc, #40]	; (800156c <RCC_AHB1PeriphClockCmd+0x3c>)
 8001544:	6b1a      	ldr	r2, [r3, #48]	; 0x30
 8001546:	4909      	ldr	r1, [pc, #36]	; (800156c <RCC_AHB1PeriphClockCmd+0x3c>)
 8001548:	687b      	ldr	r3, [r7, #4]
 800154a:	4313      	orrs	r3, r2
 800154c:	630b      	str	r3, [r1, #48]	; 0x30
 800154e:	e006      	b.n	800155e <RCC_AHB1PeriphClockCmd+0x2e>
 8001550:	4b06      	ldr	r3, [pc, #24]	; (800156c <RCC_AHB1PeriphClockCmd+0x3c>)
 8001552:	6b1a      	ldr	r2, [r3, #48]	; 0x30
 8001554:	687b      	ldr	r3, [r7, #4]
 8001556:	43db      	mvns	r3, r3
 8001558:	4904      	ldr	r1, [pc, #16]	; (800156c <RCC_AHB1PeriphClockCmd+0x3c>)
 800155a:	4013      	ands	r3, r2
 800155c:	630b      	str	r3, [r1, #48]	; 0x30
 800155e:	bf00      	nop
 8001560:	370c      	adds	r7, #12
 8001562:	46bd      	mov	sp, r7
 8001564:	f85d 7b04 	ldr.w	r7, [sp], #4
 8001568:	4770      	bx	lr
 800156a:	bf00      	nop
 800156c:	40023800 	.word	0x40023800

08001570 <RCC_APB1PeriphClockCmd>:
 8001570:	b480      	push	{r7}
 8001572:	b083      	sub	sp, #12
 8001574:	af00      	add	r7, sp, #0
 8001576:	6078      	str	r0, [r7, #4]
 8001578:	460b      	mov	r3, r1
 800157a:	70fb      	strb	r3, [r7, #3]
 800157c:	78fb      	ldrb	r3, [r7, #3]
 800157e:	2b00      	cmp	r3, #0
 8001580:	d006      	beq.n	8001590 <RCC_APB1PeriphClockCmd+0x20>
 8001582:	4b0a      	ldr	r3, [pc, #40]	; (80015ac <RCC_APB1PeriphClockCmd+0x3c>)
 8001584:	6c1a      	ldr	r2, [r3, #64]	; 0x40
 8001586:	4909      	ldr	r1, [pc, #36]	; (80015ac <RCC_APB1PeriphClockCmd+0x3c>)
 8001588:	687b      	ldr	r3, [r7, #4]
 800158a:	4313      	orrs	r3, r2
 800158c:	640b      	str	r3, [r1, #64]	; 0x40
 800158e:	e006      	b.n	800159e <RCC_APB1PeriphClockCmd+0x2e>
 8001590:	4b06      	ldr	r3, [pc, #24]	; (80015ac <RCC_APB1PeriphClockCmd+0x3c>)
 8001592:	6c1a      	ldr	r2, [r3, #64]	; 0x40
 8001594:	687b      	ldr	r3, [r7, #4]
 8001596:	43db      	mvns	r3, r3
 8001598:	4904      	ldr	r1, [pc, #16]	; (80015ac <RCC_APB1PeriphClockCmd+0x3c>)
 800159a:	4013      	ands	r3, r2
 800159c:	640b      	str	r3, [r1, #64]	; 0x40
 800159e:	bf00      	nop
 80015a0:	370c      	adds	r7, #12
 80015a2:	46bd      	mov	sp, r7
 80015a4:	f85d 7b04 	ldr.w	r7, [sp], #4
 80015a8:	4770      	bx	lr
 80015aa:	bf00      	nop
 80015ac:	40023800 	.word	0x40023800

080015b0 <RCC_APB2PeriphClockCmd>:
 80015b0:	b480      	push	{r7}
 80015b2:	b083      	sub	sp, #12
 80015b4:	af00      	add	r7, sp, #0
 80015b6:	6078      	str	r0, [r7, #4]
 80015b8:	460b      	mov	r3, r1
 80015ba:	70fb      	strb	r3, [r7, #3]
 80015bc:	78fb      	ldrb	r3, [r7, #3]
 80015be:	2b00      	cmp	r3, #0
 80015c0:	d006      	beq.n	80015d0 <RCC_APB2PeriphClockCmd+0x20>
 80015c2:	4b0a      	ldr	r3, [pc, #40]	; (80015ec <RCC_APB2PeriphClockCmd+0x3c>)
 80015c4:	6c5a      	ldr	r2, [r3, #68]	; 0x44
 80015c6:	4909      	ldr	r1, [pc, #36]	; (80015ec <RCC_APB2PeriphClockCmd+0x3c>)
 80015c8:	687b      	ldr	r3, [r7, #4]
 80015ca:	4313      	orrs	r3, r2
 80015cc:	644b      	str	r3, [r1, #68]	; 0x44
 80015ce:	e006      	b.n	80015de <RCC_APB2PeriphClockCmd+0x2e>
 80015d0:	4b06      	ldr	r3, [pc, #24]	; (80015ec <RCC_APB2PeriphClockCmd+0x3c>)
 80015d2:	6c5a      	ldr	r2, [r3, #68]	; 0x44
 80015d4:	687b      	ldr	r3, [r7, #4]
 80015d6:	43db      	mvns	r3, r3
 80015d8:	4904      	ldr	r1, [pc, #16]	; (80015ec <RCC_APB2PeriphClockCmd+0x3c>)
 80015da:	4013      	ands	r3, r2
 80015dc:	644b      	str	r3, [r1, #68]	; 0x44
 80015de:	bf00      	nop
 80015e0:	370c      	adds	r7, #12
 80015e2:	46bd      	mov	sp, r7
 80015e4:	f85d 7b04 	ldr.w	r7, [sp], #4
 80015e8:	4770      	bx	lr
 80015ea:	bf00      	nop
 80015ec:	40023800 	.word	0x40023800

080015f0 <RCC_APB2PeriphResetCmd>:
 80015f0:	b480      	push	{r7}
 80015f2:	b083      	sub	sp, #12
 80015f4:	af00      	add	r7, sp, #0
 80015f6:	6078      	str	r0, [r7, #4]
 80015f8:	460b      	mov	r3, r1
 80015fa:	70fb      	strb	r3, [r7, #3]
 80015fc:	78fb      	ldrb	r3, [r7, #3]
 80015fe:	2b00      	cmp	r3, #0
 8001600:	d006      	beq.n	8001610 <RCC_APB2PeriphResetCmd+0x20>
 8001602:	4b0a      	ldr	r3, [pc, #40]	; (800162c <RCC_APB2PeriphResetCmd+0x3c>)
 8001604:	6a5a      	ldr	r2, [r3, #36]	; 0x24
 8001606:	4909      	ldr	r1, [pc, #36]	; (800162c <RCC_APB2PeriphResetCmd+0x3c>)
 8001608:	687b      	ldr	r3, [r7, #4]
 800160a:	4313      	orrs	r3, r2
 800160c:	624b      	str	r3, [r1, #36]	; 0x24
 800160e:	e006      	b.n	800161e <RCC_APB2PeriphResetCmd+0x2e>
 8001610:	4b06      	ldr	r3, [pc, #24]	; (800162c <RCC_APB2PeriphResetCmd+0x3c>)
 8001612:	6a5a      	ldr	r2, [r3, #36]	; 0x24
 8001614:	687b      	ldr	r3, [r7, #4]
 8001616:	43db      	mvns	r3, r3
 8001618:	4904      	ldr	r1, [pc, #16]	; (800162c <RCC_APB2PeriphResetCmd+0x3c>)
 800161a:	4013      	ands	r3, r2
 800161c:	624b      	str	r3, [r1, #36]	; 0x24
 800161e:	bf00      	nop
 8001620:	370c      	adds	r7, #12
 8001622:	46bd      	mov	sp, r7
 8001624:	f85d 7b04 	ldr.w	r7, [sp], #4
 8001628:	4770      	bx	lr
 800162a:	bf00      	nop
 800162c:	40023800 	.word	0x40023800

08001630 <TIM_TimeBaseInit>:
 8001630:	b480      	push	{r7}
 8001632:	b085      	sub	sp, #20
 8001634:	af00      	add	r7, sp, #0
 8001636:	6078      	str	r0, [r7, #4]
 8001638:	6039      	str	r1, [r7, #0]
 800163a:	2300      	movs	r3, #0
 800163c:	81fb      	strh	r3, [r7, #14]
 800163e:	687b      	ldr	r3, [r7, #4]
 8001640:	881b      	ldrh	r3, [r3, #0]
 8001642:	81fb      	strh	r3, [r7, #14]
 8001644:	687b      	ldr	r3, [r7, #4]
 8001646:	4a29      	ldr	r2, [pc, #164]	; (80016ec <TIM_TimeBaseInit+0xbc>)
 8001648:	4293      	cmp	r3, r2
 800164a:	d013      	beq.n	8001674 <TIM_TimeBaseInit+0x44>
 800164c:	687b      	ldr	r3, [r7, #4]
 800164e:	4a28      	ldr	r2, [pc, #160]	; (80016f0 <TIM_TimeBaseInit+0xc0>)
 8001650:	4293      	cmp	r3, r2
 8001652:	d00f      	beq.n	8001674 <TIM_TimeBaseInit+0x44>
 8001654:	687b      	ldr	r3, [r7, #4]
 8001656:	f1b3 4f80 	cmp.w	r3, #1073741824	; 0x40000000
 800165a:	d00b      	beq.n	8001674 <TIM_TimeBaseInit+0x44>
 800165c:	687b      	ldr	r3, [r7, #4]
 800165e:	4a25      	ldr	r2, [pc, #148]	; (80016f4 <TIM_TimeBaseInit+0xc4>)
 8001660:	4293      	cmp	r3, r2
 8001662:	d007      	beq.n	8001674 <TIM_TimeBaseInit+0x44>
 8001664:	687b      	ldr	r3, [r7, #4]
 8001666:	4a24      	ldr	r2, [pc, #144]	; (80016f8 <TIM_TimeBaseInit+0xc8>)
 8001668:	4293      	cmp	r3, r2
 800166a:	d003      	beq.n	8001674 <TIM_TimeBaseInit+0x44>
 800166c:	687b      	ldr	r3, [r7, #4]
 800166e:	4a23      	ldr	r2, [pc, #140]	; (80016fc <TIM_TimeBaseInit+0xcc>)
 8001670:	4293      	cmp	r3, r2
 8001672:	d108      	bne.n	8001686 <TIM_TimeBaseInit+0x56>
 8001674:	89fb      	ldrh	r3, [r7, #14]
 8001676:	f023 0370 	bic.w	r3, r3, #112	; 0x70
 800167a:	81fb      	strh	r3, [r7, #14]
 800167c:	683b      	ldr	r3, [r7, #0]
 800167e:	885a      	ldrh	r2, [r3, #2]
 8001680:	89fb      	ldrh	r3, [r7, #14]
 8001682:	4313      	orrs	r3, r2
 8001684:	81fb      	strh	r3, [r7, #14]
 8001686:	687b      	ldr	r3, [r7, #4]
 8001688:	4a1d      	ldr	r2, [pc, #116]	; (8001700 <TIM_TimeBaseInit+0xd0>)
 800168a:	4293      	cmp	r3, r2
 800168c:	d00c      	beq.n	80016a8 <TIM_TimeBaseInit+0x78>
 800168e:	687b      	ldr	r3, [r7, #4]
 8001690:	4a1c      	ldr	r2, [pc, #112]	; (8001704 <TIM_TimeBaseInit+0xd4>)
 8001692:	4293      	cmp	r3, r2
 8001694:	d008      	beq.n	80016a8 <TIM_TimeBaseInit+0x78>
 8001696:	89fb      	ldrh	r3, [r7, #14]
 8001698:	f423 7340 	bic.w	r3, r3, #768	; 0x300
 800169c:	81fb      	strh	r3, [r7, #14]
 800169e:	683b      	ldr	r3, [r7, #0]
 80016a0:	891a      	ldrh	r2, [r3, #8]
 80016a2:	89fb      	ldrh	r3, [r7, #14]
 80016a4:	4313      	orrs	r3, r2
 80016a6:	81fb      	strh	r3, [r7, #14]
 80016a8:	687b      	ldr	r3, [r7, #4]
 80016aa:	89fa      	ldrh	r2, [r7, #14]
 80016ac:	801a      	strh	r2, [r3, #0]
 80016ae:	683b      	ldr	r3, [r7, #0]
 80016b0:	685a      	ldr	r2, [r3, #4]
 80016b2:	687b      	ldr	r3, [r7, #4]
 80016b4:	62da      	str	r2, [r3, #44]	; 0x2c
 80016b6:	683b      	ldr	r3, [r7, #0]
 80016b8:	881a      	ldrh	r2, [r3, #0]
 80016ba:	687b      	ldr	r3, [r7, #4]
 80016bc:	851a      	strh	r2, [r3, #40]	; 0x28
 80016be:	687b      	ldr	r3, [r7, #4]
 80016c0:	4a0a      	ldr	r2, [pc, #40]	; (80016ec <TIM_TimeBaseInit+0xbc>)
 80016c2:	4293      	cmp	r3, r2
 80016c4:	d003      	beq.n	80016ce <TIM_TimeBaseInit+0x9e>
 80016c6:	687b      	ldr	r3, [r7, #4]
 80016c8:	4a09      	ldr	r2, [pc, #36]	; (80016f0 <TIM_TimeBaseInit+0xc0>)
 80016ca:	4293      	cmp	r3, r2
 80016cc:	d104      	bne.n	80016d8 <TIM_TimeBaseInit+0xa8>
 80016ce:	683b      	ldr	r3, [r7, #0]
 80016d0:	7a9b      	ldrb	r3, [r3, #10]
 80016d2:	b29a      	uxth	r2, r3
 80016d4:	687b      	ldr	r3, [r7, #4]
 80016d6:	861a      	strh	r2, [r3, #48]	; 0x30
 80016d8:	687b      	ldr	r3, [r7, #4]
 80016da:	2201      	movs	r2, #1
 80016dc:	829a      	strh	r2, [r3, #20]
 80016de:	bf00      	nop
 80016e0:	3714      	adds	r7, #20
 80016e2:	46bd      	mov	sp, r7
 80016e4:	f85d 7b04 	ldr.w	r7, [sp], #4
 80016e8:	4770      	bx	lr
 80016ea:	bf00      	nop
 80016ec:	40010000 	.word	0x40010000
 80016f0:	40010400 	.word	0x40010400
 80016f4:	40000400 	.word	0x40000400
 80016f8:	40000800 	.word	0x40000800
 80016fc:	40000c00 	.word	0x40000c00
 8001700:	40001000 	.word	0x40001000
 8001704:	40001400 	.word	0x40001400

08001708 <TIM_Cmd>:
 8001708:	b480      	push	{r7}
 800170a:	b083      	sub	sp, #12
 800170c:	af00      	add	r7, sp, #0
 800170e:	6078      	str	r0, [r7, #4]
 8001710:	460b      	mov	r3, r1
 8001712:	70fb      	strb	r3, [r7, #3]
 8001714:	78fb      	ldrb	r3, [r7, #3]
 8001716:	2b00      	cmp	r3, #0
 8001718:	d008      	beq.n	800172c <TIM_Cmd+0x24>
 800171a:	687b      	ldr	r3, [r7, #4]
 800171c:	881b      	ldrh	r3, [r3, #0]
 800171e:	b29b      	uxth	r3, r3
 8001720:	f043 0301 	orr.w	r3, r3, #1
 8001724:	b29a      	uxth	r2, r3
 8001726:	687b      	ldr	r3, [r7, #4]
 8001728:	801a      	strh	r2, [r3, #0]
 800172a:	e007      	b.n	800173c <TIM_Cmd+0x34>
 800172c:	687b      	ldr	r3, [r7, #4]
 800172e:	881b      	ldrh	r3, [r3, #0]
 8001730:	b29b      	uxth	r3, r3
 8001732:	f023 0301 	bic.w	r3, r3, #1
 8001736:	b29a      	uxth	r2, r3
 8001738:	687b      	ldr	r3, [r7, #4]
 800173a:	801a      	strh	r2, [r3, #0]
 800173c:	bf00      	nop
 800173e:	370c      	adds	r7, #12
 8001740:	46bd      	mov	sp, r7
 8001742:	f85d 7b04 	ldr.w	r7, [sp], #4
 8001746:	4770      	bx	lr

08001748 <TIM_OC2Init>:
 8001748:	b480      	push	{r7}
 800174a:	b085      	sub	sp, #20
 800174c:	af00      	add	r7, sp, #0
 800174e:	6078      	str	r0, [r7, #4]
 8001750:	6039      	str	r1, [r7, #0]
 8001752:	2300      	movs	r3, #0
 8001754:	817b      	strh	r3, [r7, #10]
 8001756:	2300      	movs	r3, #0
 8001758:	81fb      	strh	r3, [r7, #14]
 800175a:	2300      	movs	r3, #0
 800175c:	81bb      	strh	r3, [r7, #12]
 800175e:	687b      	ldr	r3, [r7, #4]
 8001760:	8c1b      	ldrh	r3, [r3, #32]
 8001762:	b29b      	uxth	r3, r3
 8001764:	f023 0310 	bic.w	r3, r3, #16
 8001768:	b29a      	uxth	r2, r3
 800176a:	687b      	ldr	r3, [r7, #4]
 800176c:	841a      	strh	r2, [r3, #32]
 800176e:	687b      	ldr	r3, [r7, #4]
 8001770:	8c1b      	ldrh	r3, [r3, #32]
 8001772:	81fb      	strh	r3, [r7, #14]
 8001774:	687b      	ldr	r3, [r7, #4]
 8001776:	889b      	ldrh	r3, [r3, #4]
 8001778:	81bb      	strh	r3, [r7, #12]
 800177a:	687b      	ldr	r3, [r7, #4]
 800177c:	8b1b      	ldrh	r3, [r3, #24]
 800177e:	817b      	strh	r3, [r7, #10]
 8001780:	897b      	ldrh	r3, [r7, #10]
 8001782:	f423 43e0 	bic.w	r3, r3, #28672	; 0x7000
 8001786:	817b      	strh	r3, [r7, #10]
 8001788:	897b      	ldrh	r3, [r7, #10]
 800178a:	f423 7340 	bic.w	r3, r3, #768	; 0x300
 800178e:	817b      	strh	r3, [r7, #10]
 8001790:	683b      	ldr	r3, [r7, #0]
 8001792:	881b      	ldrh	r3, [r3, #0]
 8001794:	021b      	lsls	r3, r3, #8
 8001796:	b29a      	uxth	r2, r3
 8001798:	897b      	ldrh	r3, [r7, #10]
 800179a:	4313      	orrs	r3, r2
 800179c:	817b      	strh	r3, [r7, #10]
 800179e:	89fb      	ldrh	r3, [r7, #14]
 80017a0:	f023 0320 	bic.w	r3, r3, #32
 80017a4:	81fb      	strh	r3, [r7, #14]
 80017a6:	683b      	ldr	r3, [r7, #0]
 80017a8:	899b      	ldrh	r3, [r3, #12]
 80017aa:	011b      	lsls	r3, r3, #4
 80017ac:	b29a      	uxth	r2, r3
 80017ae:	89fb      	ldrh	r3, [r7, #14]
 80017b0:	4313      	orrs	r3, r2
 80017b2:	81fb      	strh	r3, [r7, #14]
 80017b4:	683b      	ldr	r3, [r7, #0]
 80017b6:	885b      	ldrh	r3, [r3, #2]
 80017b8:	011b      	lsls	r3, r3, #4
 80017ba:	b29a      	uxth	r2, r3
 80017bc:	89fb      	ldrh	r3, [r7, #14]
 80017be:	4313      	orrs	r3, r2
 80017c0:	81fb      	strh	r3, [r7, #14]
 80017c2:	687b      	ldr	r3, [r7, #4]
 80017c4:	4a22      	ldr	r2, [pc, #136]	; (8001850 <TIM_OC2Init+0x108>)
 80017c6:	4293      	cmp	r3, r2
 80017c8:	d003      	beq.n	80017d2 <TIM_OC2Init+0x8a>
 80017ca:	687b      	ldr	r3, [r7, #4]
 80017cc:	4a21      	ldr	r2, [pc, #132]	; (8001854 <TIM_OC2Init+0x10c>)
 80017ce:	4293      	cmp	r3, r2
 80017d0:	d12b      	bne.n	800182a <TIM_OC2Init+0xe2>
 80017d2:	89fb      	ldrh	r3, [r7, #14]
 80017d4:	f023 0380 	bic.w	r3, r3, #128	; 0x80
 80017d8:	81fb      	strh	r3, [r7, #14]
 80017da:	683b      	ldr	r3, [r7, #0]
 80017dc:	89db      	ldrh	r3, [r3, #14]
 80017de:	011b      	lsls	r3, r3, #4
 80017e0:	b29a      	uxth	r2, r3
 80017e2:	89fb      	ldrh	r3, [r7, #14]
 80017e4:	4313      	orrs	r3, r2
 80017e6:	81fb      	strh	r3, [r7, #14]
 80017e8:	89fb      	ldrh	r3, [r7, #14]
 80017ea:	f023 0340 	bic.w	r3, r3, #64	; 0x40
 80017ee:	81fb      	strh	r3, [r7, #14]
 80017f0:	683b      	ldr	r3, [r7, #0]
 80017f2:	889b      	ldrh	r3, [r3, #4]
 80017f4:	011b      	lsls	r3, r3, #4
 80017f6:	b29a      	uxth	r2, r3
 80017f8:	89fb      	ldrh	r3, [r7, #14]
 80017fa:	4313      	orrs	r3, r2
 80017fc:	81fb      	strh	r3, [r7, #14]
 80017fe:	89bb      	ldrh	r3, [r7, #12]
 8001800:	f423 6380 	bic.w	r3, r3, #1024	; 0x400
 8001804:	81bb      	strh	r3, [r7, #12]
 8001806:	89bb      	ldrh	r3, [r7, #12]
 8001808:	f423 6300 	bic.w	r3, r3, #2048	; 0x800
 800180c:	81bb      	strh	r3, [r7, #12]
 800180e:	683b      	ldr	r3, [r7, #0]
 8001810:	8a1b      	ldrh	r3, [r3, #16]
 8001812:	009b      	lsls	r3, r3, #2
 8001814:	b29a      	uxth	r2, r3
 8001816:	89bb      	ldrh	r3, [r7, #12]
 8001818:	4313      	orrs	r3, r2
 800181a:	81bb      	strh	r3, [r7, #12]
 800181c:	683b      	ldr	r3, [r7, #0]
 800181e:	8a5b      	ldrh	r3, [r3, #18]
 8001820:	009b      	lsls	r3, r3, #2
 8001822:	b29a      	uxth	r2, r3
 8001824:	89bb      	ldrh	r3, [r7, #12]
 8001826:	4313      	orrs	r3, r2
 8001828:	81bb      	strh	r3, [r7, #12]
 800182a:	687b      	ldr	r3, [r7, #4]
 800182c:	89ba      	ldrh	r2, [r7, #12]
 800182e:	809a      	strh	r2, [r3, #4]
 8001830:	687b      	ldr	r3, [r7, #4]
 8001832:	897a      	ldrh	r2, [r7, #10]
 8001834:	831a      	strh	r2, [r3, #24]
 8001836:	683b      	ldr	r3, [r7, #0]
 8001838:	689a      	ldr	r2, [r3, #8]
 800183a:	687b      	ldr	r3, [r7, #4]
 800183c:	639a      	str	r2, [r3, #56]	; 0x38
 800183e:	687b      	ldr	r3, [r7, #4]
 8001840:	89fa      	ldrh	r2, [r7, #14]
 8001842:	841a      	strh	r2, [r3, #32]
 8001844:	bf00      	nop
 8001846:	3714      	adds	r7, #20
 8001848:	46bd      	mov	sp, r7
 800184a:	f85d 7b04 	ldr.w	r7, [sp], #4
 800184e:	4770      	bx	lr
 8001850:	40010000 	.word	0x40010000
 8001854:	40010400 	.word	0x40010400

08001858 <TIM_SetCompare2>:
 8001858:	b480      	push	{r7}
 800185a:	b083      	sub	sp, #12
 800185c:	af00      	add	r7, sp, #0
 800185e:	6078      	str	r0, [r7, #4]
 8001860:	6039      	str	r1, [r7, #0]
 8001862:	687b      	ldr	r3, [r7, #4]
 8001864:	683a      	ldr	r2, [r7, #0]
 8001866:	639a      	str	r2, [r3, #56]	; 0x38
 8001868:	bf00      	nop
 800186a:	370c      	adds	r7, #12
 800186c:	46bd      	mov	sp, r7
 800186e:	f85d 7b04 	ldr.w	r7, [sp], #4
 8001872:	4770      	bx	lr

08001874 <TIM_CtrlPWMOutputs>:
 8001874:	b480      	push	{r7}
 8001876:	b083      	sub	sp, #12
 8001878:	af00      	add	r7, sp, #0
 800187a:	6078      	str	r0, [r7, #4]
 800187c:	460b      	mov	r3, r1
 800187e:	70fb      	strb	r3, [r7, #3]
 8001880:	78fb      	ldrb	r3, [r7, #3]
 8001882:	2b00      	cmp	r3, #0
 8001884:	d00c      	beq.n	80018a0 <TIM_CtrlPWMOutputs+0x2c>
 8001886:	687b      	ldr	r3, [r7, #4]
 8001888:	f8b3 3044 	ldrh.w	r3, [r3, #68]	; 0x44
 800188c:	b29b      	uxth	r3, r3
 800188e:	ea6f 4343 	mvn.w	r3, r3, lsl #17
 8001892:	ea6f 4353 	mvn.w	r3, r3, lsr #17
 8001896:	b29a      	uxth	r2, r3
 8001898:	687b      	ldr	r3, [r7, #4]
 800189a:	f8a3 2044 	strh.w	r2, [r3, #68]	; 0x44
 800189e:	e009      	b.n	80018b4 <TIM_CtrlPWMOutputs+0x40>
 80018a0:	687b      	ldr	r3, [r7, #4]
 80018a2:	f8b3 3044 	ldrh.w	r3, [r3, #68]	; 0x44
 80018a6:	b29b      	uxth	r3, r3
 80018a8:	f3c3 030e 	ubfx	r3, r3, #0, #15
 80018ac:	b29a      	uxth	r2, r3
 80018ae:	687b      	ldr	r3, [r7, #4]
 80018b0:	f8a3 2044 	strh.w	r2, [r3, #68]	; 0x44
 80018b4:	bf00      	nop
 80018b6:	370c      	adds	r7, #12
 80018b8:	46bd      	mov	sp, r7
 80018ba:	f85d 7b04 	ldr.w	r7, [sp], #4
 80018be:	4770      	bx	lr

080018c0 <NVIC_SetPriority>:
 80018c0:	b480      	push	{r7}
 80018c2:	b083      	sub	sp, #12
 80018c4:	af00      	add	r7, sp, #0
 80018c6:	4603      	mov	r3, r0
 80018c8:	6039      	str	r1, [r7, #0]
 80018ca:	71fb      	strb	r3, [r7, #7]
 80018cc:	f997 3007 	ldrsb.w	r3, [r7, #7]
 80018d0:	2b00      	cmp	r3, #0
 80018d2:	da0b      	bge.n	80018ec <NVIC_SetPriority+0x2c>
 80018d4:	683b      	ldr	r3, [r7, #0]
 80018d6:	b2da      	uxtb	r2, r3
 80018d8:	490c      	ldr	r1, [pc, #48]	; (800190c <NVIC_SetPriority+0x4c>)
 80018da:	79fb      	ldrb	r3, [r7, #7]
 80018dc:	f003 030f 	and.w	r3, r3, #15
 80018e0:	3b04      	subs	r3, #4
 80018e2:	0112      	lsls	r2, r2, #4
 80018e4:	b2d2      	uxtb	r2, r2
 80018e6:	440b      	add	r3, r1
 80018e8:	761a      	strb	r2, [r3, #24]
 80018ea:	e009      	b.n	8001900 <NVIC_SetPriority+0x40>
 80018ec:	683b      	ldr	r3, [r7, #0]
 80018ee:	b2da      	uxtb	r2, r3
 80018f0:	4907      	ldr	r1, [pc, #28]	; (8001910 <NVIC_SetPriority+0x50>)
 80018f2:	f997 3007 	ldrsb.w	r3, [r7, #7]
 80018f6:	0112      	lsls	r2, r2, #4
 80018f8:	b2d2      	uxtb	r2, r2
 80018fa:	440b      	add	r3, r1
 80018fc:	f883 2300 	strb.w	r2, [r3, #768]	; 0x300
 8001900:	bf00      	nop
 8001902:	370c      	adds	r7, #12
 8001904:	46bd      	mov	sp, r7
 8001906:	f85d 7b04 	ldr.w	r7, [sp], #4
 800190a:	4770      	bx	lr
 800190c:	e000ed00 	.word	0xe000ed00
 8001910:	e000e100 	.word	0xe000e100

08001914 <SysTick_Config>:
 8001914:	b580      	push	{r7, lr}
 8001916:	b082      	sub	sp, #8
 8001918:	af00      	add	r7, sp, #0
 800191a:	6078      	str	r0, [r7, #4]
 800191c:	687b      	ldr	r3, [r7, #4]
 800191e:	3b01      	subs	r3, #1
 8001920:	f1b3 7f80 	cmp.w	r3, #16777216	; 0x1000000
 8001924:	d301      	bcc.n	800192a <SysTick_Config+0x16>
 8001926:	2301      	movs	r3, #1
 8001928:	e00f      	b.n	800194a <SysTick_Config+0x36>
 800192a:	4a0a      	ldr	r2, [pc, #40]	; (8001954 <SysTick_Config+0x40>)
 800192c:	687b      	ldr	r3, [r7, #4]
 800192e:	3b01      	subs	r3, #1
 8001930:	6053      	str	r3, [r2, #4]
 8001932:	210f      	movs	r1, #15
 8001934:	f04f 30ff 	mov.w	r0, #4294967295
 8001938:	f7ff ffc2 	bl	80018c0 <NVIC_SetPriority>
 800193c:	4b05      	ldr	r3, [pc, #20]	; (8001954 <SysTick_Config+0x40>)
 800193e:	2200      	movs	r2, #0
 8001940:	609a      	str	r2, [r3, #8]
 8001942:	4b04      	ldr	r3, [pc, #16]	; (8001954 <SysTick_Config+0x40>)
 8001944:	2207      	movs	r2, #7
 8001946:	601a      	str	r2, [r3, #0]
 8001948:	2300      	movs	r3, #0
 800194a:	4618      	mov	r0, r3
 800194c:	3708      	adds	r7, #8
 800194e:	46bd      	mov	sp, r7
 8001950:	bd80      	pop	{r7, pc}
 8001952:	bf00      	nop
 8001954:	e000e010 	.word	0xe000e010

08001958 <TimerInit>:
 8001958:	b580      	push	{r7, lr}
 800195a:	b084      	sub	sp, #16
 800195c:	af00      	add	r7, sp, #0
 800195e:	463b      	mov	r3, r7
 8001960:	4618      	mov	r0, r3
 8001962:	f7ff fd3d 	bl	80013e0 <RCC_GetClocksFreq>
 8001966:	683b      	ldr	r3, [r7, #0]
 8001968:	4a0a      	ldr	r2, [pc, #40]	; (8001994 <TimerInit+0x3c>)
 800196a:	fba2 2303 	umull	r2, r3, r2, r3
 800196e:	099b      	lsrs	r3, r3, #6
 8001970:	4618      	mov	r0, r3
 8001972:	f7ff ffcf 	bl	8001914 <SysTick_Config>
 8001976:	2101      	movs	r1, #1
 8001978:	f04f 30ff 	mov.w	r0, #4294967295
 800197c:	f7ff ffa0 	bl	80018c0 <NVIC_SetPriority>
 8001980:	f44f 72c0 	mov.w	r2, #384	; 0x180
 8001984:	2100      	movs	r1, #0
 8001986:	4804      	ldr	r0, [pc, #16]	; (8001998 <TimerInit+0x40>)
 8001988:	f000 f950 	bl	8001c2c <memsetl>
 800198c:	bf00      	nop
 800198e:	3710      	adds	r7, #16
 8001990:	46bd      	mov	sp, r7
 8001992:	bd80      	pop	{r7, pc}
 8001994:	10624dd3 	.word	0x10624dd3
 8001998:	20000060 	.word	0x20000060

0800199c <TimerStop>:
 800199c:	b480      	push	{r7}
 800199e:	b083      	sub	sp, #12
 80019a0:	af00      	add	r7, sp, #0
 80019a2:	4603      	mov	r3, r0
 80019a4:	71fb      	strb	r3, [r7, #7]
 80019a6:	79fb      	ldrb	r3, [r7, #7]
 80019a8:	2b0f      	cmp	r3, #15
 80019aa:	d80a      	bhi.n	80019c2 <TimerStop+0x26>
 80019ac:	79fa      	ldrb	r2, [r7, #7]
 80019ae:	4922      	ldr	r1, [pc, #136]	; (8001a38 <TimerStop+0x9c>)
 80019b0:	4613      	mov	r3, r2
 80019b2:	005b      	lsls	r3, r3, #1
 80019b4:	4413      	add	r3, r2
 80019b6:	00db      	lsls	r3, r3, #3
 80019b8:	440b      	add	r3, r1
 80019ba:	3310      	adds	r3, #16
 80019bc:	681b      	ldr	r3, [r3, #0]
 80019be:	2b00      	cmp	r3, #0
 80019c0:	d101      	bne.n	80019c6 <TimerStop+0x2a>
 80019c2:	2300      	movs	r3, #0
 80019c4:	e031      	b.n	8001a2a <TimerStop+0x8e>
 80019c6:	79fa      	ldrb	r2, [r7, #7]
 80019c8:	491b      	ldr	r1, [pc, #108]	; (8001a38 <TimerStop+0x9c>)
 80019ca:	4613      	mov	r3, r2
 80019cc:	005b      	lsls	r3, r3, #1
 80019ce:	4413      	add	r3, r2
 80019d0:	00db      	lsls	r3, r3, #3
 80019d2:	440b      	add	r3, r1
 80019d4:	2200      	movs	r2, #0
 80019d6:	601a      	str	r2, [r3, #0]
 80019d8:	79fa      	ldrb	r2, [r7, #7]
 80019da:	4917      	ldr	r1, [pc, #92]	; (8001a38 <TimerStop+0x9c>)
 80019dc:	4613      	mov	r3, r2
 80019de:	005b      	lsls	r3, r3, #1
 80019e0:	4413      	add	r3, r2
 80019e2:	00db      	lsls	r3, r3, #3
 80019e4:	440b      	add	r3, r1
 80019e6:	3310      	adds	r3, #16
 80019e8:	2200      	movs	r2, #0
 80019ea:	601a      	str	r2, [r3, #0]
 80019ec:	79fa      	ldrb	r2, [r7, #7]
 80019ee:	4912      	ldr	r1, [pc, #72]	; (8001a38 <TimerStop+0x9c>)
 80019f0:	4613      	mov	r3, r2
 80019f2:	005b      	lsls	r3, r3, #1
 80019f4:	4413      	add	r3, r2
 80019f6:	00db      	lsls	r3, r3, #3
 80019f8:	440b      	add	r3, r1
 80019fa:	330c      	adds	r3, #12
 80019fc:	2200      	movs	r2, #0
 80019fe:	701a      	strb	r2, [r3, #0]
 8001a00:	79fa      	ldrb	r2, [r7, #7]
 8001a02:	490d      	ldr	r1, [pc, #52]	; (8001a38 <TimerStop+0x9c>)
 8001a04:	4613      	mov	r3, r2
 8001a06:	005b      	lsls	r3, r3, #1
 8001a08:	4413      	add	r3, r2
 8001a0a:	00db      	lsls	r3, r3, #3
 8001a0c:	440b      	add	r3, r1
 8001a0e:	3308      	adds	r3, #8
 8001a10:	2200      	movs	r2, #0
 8001a12:	601a      	str	r2, [r3, #0]
 8001a14:	79fa      	ldrb	r2, [r7, #7]
 8001a16:	4908      	ldr	r1, [pc, #32]	; (8001a38 <TimerStop+0x9c>)
 8001a18:	4613      	mov	r3, r2
 8001a1a:	005b      	lsls	r3, r3, #1
 8001a1c:	4413      	add	r3, r2
 8001a1e:	00db      	lsls	r3, r3, #3
 8001a20:	440b      	add	r3, r1
 8001a22:	3304      	adds	r3, #4
 8001a24:	2200      	movs	r2, #0
 8001a26:	601a      	str	r2, [r3, #0]
 8001a28:	2301      	movs	r3, #1
 8001a2a:	4618      	mov	r0, r3
 8001a2c:	370c      	adds	r7, #12
 8001a2e:	46bd      	mov	sp, r7
 8001a30:	f85d 7b04 	ldr.w	r7, [sp], #4
 8001a34:	4770      	bx	lr
 8001a36:	bf00      	nop
 8001a38:	20000060 	.word	0x20000060

08001a3c <GetMilSecTick>:
 8001a3c:	b480      	push	{r7}
 8001a3e:	af00      	add	r7, sp, #0
 8001a40:	4b03      	ldr	r3, [pc, #12]	; (8001a50 <GetMilSecTick+0x14>)
 8001a42:	681b      	ldr	r3, [r3, #0]
 8001a44:	4618      	mov	r0, r3
 8001a46:	46bd      	mov	sp, r7
 8001a48:	f85d 7b04 	ldr.w	r7, [sp], #4
 8001a4c:	4770      	bx	lr
 8001a4e:	bf00      	nop
 8001a50:	200001e0 	.word	0x200001e0

08001a54 <processTimerScheduler>:
 8001a54:	b580      	push	{r7, lr}
 8001a56:	b084      	sub	sp, #16
 8001a58:	af00      	add	r7, sp, #0
 8001a5a:	2300      	movs	r3, #0
 8001a5c:	73fb      	strb	r3, [r7, #15]
 8001a5e:	e068      	b.n	8001b32 <processTimerScheduler+0xde>
 8001a60:	7bfa      	ldrb	r2, [r7, #15]
 8001a62:	4937      	ldr	r1, [pc, #220]	; (8001b40 <processTimerScheduler+0xec>)
 8001a64:	4613      	mov	r3, r2
 8001a66:	005b      	lsls	r3, r3, #1
 8001a68:	4413      	add	r3, r2
 8001a6a:	00db      	lsls	r3, r3, #3
 8001a6c:	440b      	add	r3, r1
 8001a6e:	3310      	adds	r3, #16
 8001a70:	681b      	ldr	r3, [r3, #0]
 8001a72:	2b00      	cmp	r3, #0
 8001a74:	d05a      	beq.n	8001b2c <processTimerScheduler+0xd8>
 8001a76:	7bfb      	ldrb	r3, [r7, #15]
 8001a78:	4618      	mov	r0, r3
 8001a7a:	f000 f863 	bl	8001b44 <TimeExpired>
 8001a7e:	4603      	mov	r3, r0
 8001a80:	2b00      	cmp	r3, #0
 8001a82:	d053      	beq.n	8001b2c <processTimerScheduler+0xd8>
 8001a84:	7bfa      	ldrb	r2, [r7, #15]
 8001a86:	492e      	ldr	r1, [pc, #184]	; (8001b40 <processTimerScheduler+0xec>)
 8001a88:	4613      	mov	r3, r2
 8001a8a:	005b      	lsls	r3, r3, #1
 8001a8c:	4413      	add	r3, r2
 8001a8e:	00db      	lsls	r3, r3, #3
 8001a90:	440b      	add	r3, r1
 8001a92:	3310      	adds	r3, #16
 8001a94:	681b      	ldr	r3, [r3, #0]
 8001a96:	60bb      	str	r3, [r7, #8]
 8001a98:	7bfa      	ldrb	r2, [r7, #15]
 8001a9a:	4929      	ldr	r1, [pc, #164]	; (8001b40 <processTimerScheduler+0xec>)
 8001a9c:	4613      	mov	r3, r2
 8001a9e:	005b      	lsls	r3, r3, #1
 8001aa0:	4413      	add	r3, r2
 8001aa2:	00db      	lsls	r3, r3, #3
 8001aa4:	440b      	add	r3, r1
 8001aa6:	3314      	adds	r3, #20
 8001aa8:	681b      	ldr	r3, [r3, #0]
 8001aaa:	607b      	str	r3, [r7, #4]
 8001aac:	7bfa      	ldrb	r2, [r7, #15]
 8001aae:	4924      	ldr	r1, [pc, #144]	; (8001b40 <processTimerScheduler+0xec>)
 8001ab0:	4613      	mov	r3, r2
 8001ab2:	005b      	lsls	r3, r3, #1
 8001ab4:	4413      	add	r3, r2
 8001ab6:	00db      	lsls	r3, r3, #3
 8001ab8:	440b      	add	r3, r1
 8001aba:	330c      	adds	r3, #12
 8001abc:	781b      	ldrb	r3, [r3, #0]
 8001abe:	b2db      	uxtb	r3, r3
 8001ac0:	2bff      	cmp	r3, #255	; 0xff
 8001ac2:	d020      	beq.n	8001b06 <processTimerScheduler+0xb2>
 8001ac4:	7bfa      	ldrb	r2, [r7, #15]
 8001ac6:	491e      	ldr	r1, [pc, #120]	; (8001b40 <processTimerScheduler+0xec>)
 8001ac8:	4613      	mov	r3, r2
 8001aca:	005b      	lsls	r3, r3, #1
 8001acc:	4413      	add	r3, r2
 8001ace:	00db      	lsls	r3, r3, #3
 8001ad0:	440b      	add	r3, r1
 8001ad2:	330c      	adds	r3, #12
 8001ad4:	781b      	ldrb	r3, [r3, #0]
 8001ad6:	b2db      	uxtb	r3, r3
 8001ad8:	2b00      	cmp	r3, #0
 8001ada:	d014      	beq.n	8001b06 <processTimerScheduler+0xb2>
 8001adc:	7bfa      	ldrb	r2, [r7, #15]
 8001ade:	4918      	ldr	r1, [pc, #96]	; (8001b40 <processTimerScheduler+0xec>)
 8001ae0:	4613      	mov	r3, r2
 8001ae2:	005b      	lsls	r3, r3, #1
 8001ae4:	4413      	add	r3, r2
 8001ae6:	00db      	lsls	r3, r3, #3
 8001ae8:	440b      	add	r3, r1
 8001aea:	330c      	adds	r3, #12
 8001aec:	781b      	ldrb	r3, [r3, #0]
 8001aee:	b2db      	uxtb	r3, r3
 8001af0:	3b01      	subs	r3, #1
 8001af2:	b2d8      	uxtb	r0, r3
 8001af4:	4912      	ldr	r1, [pc, #72]	; (8001b40 <processTimerScheduler+0xec>)
 8001af6:	4613      	mov	r3, r2
 8001af8:	005b      	lsls	r3, r3, #1
 8001afa:	4413      	add	r3, r2
 8001afc:	00db      	lsls	r3, r3, #3
 8001afe:	440b      	add	r3, r1
 8001b00:	330c      	adds	r3, #12
 8001b02:	4602      	mov	r2, r0
 8001b04:	701a      	strb	r2, [r3, #0]
 8001b06:	7bfa      	ldrb	r2, [r7, #15]
 8001b08:	490d      	ldr	r1, [pc, #52]	; (8001b40 <processTimerScheduler+0xec>)
 8001b0a:	4613      	mov	r3, r2
 8001b0c:	005b      	lsls	r3, r3, #1
 8001b0e:	4413      	add	r3, r2
 8001b10:	00db      	lsls	r3, r3, #3
 8001b12:	440b      	add	r3, r1
 8001b14:	330c      	adds	r3, #12
 8001b16:	781b      	ldrb	r3, [r3, #0]
 8001b18:	b2db      	uxtb	r3, r3
 8001b1a:	2b00      	cmp	r3, #0
 8001b1c:	d103      	bne.n	8001b26 <processTimerScheduler+0xd2>
 8001b1e:	7bfb      	ldrb	r3, [r7, #15]
 8001b20:	4618      	mov	r0, r3
 8001b22:	f7ff ff3b 	bl	800199c <TimerStop>
 8001b26:	68bb      	ldr	r3, [r7, #8]
 8001b28:	6878      	ldr	r0, [r7, #4]
 8001b2a:	4798      	blx	r3
 8001b2c:	7bfb      	ldrb	r3, [r7, #15]
 8001b2e:	3301      	adds	r3, #1
 8001b30:	73fb      	strb	r3, [r7, #15]
 8001b32:	7bfb      	ldrb	r3, [r7, #15]
 8001b34:	2b0f      	cmp	r3, #15
 8001b36:	d993      	bls.n	8001a60 <processTimerScheduler+0xc>
 8001b38:	bf00      	nop
 8001b3a:	3710      	adds	r7, #16
 8001b3c:	46bd      	mov	sp, r7
 8001b3e:	bd80      	pop	{r7, pc}
 8001b40:	20000060 	.word	0x20000060

08001b44 <TimeExpired>:
 8001b44:	b580      	push	{r7, lr}
 8001b46:	b084      	sub	sp, #16
 8001b48:	af00      	add	r7, sp, #0
 8001b4a:	4603      	mov	r3, r0
 8001b4c:	71fb      	strb	r3, [r7, #7]
 8001b4e:	2300      	movs	r3, #0
 8001b50:	60fb      	str	r3, [r7, #12]
 8001b52:	b672      	cpsid	i
 8001b54:	f7ff ff72 	bl	8001a3c <GetMilSecTick>
 8001b58:	60b8      	str	r0, [r7, #8]
 8001b5a:	79fb      	ldrb	r3, [r7, #7]
 8001b5c:	2b0f      	cmp	r3, #15
 8001b5e:	d80a      	bhi.n	8001b76 <TimeExpired+0x32>
 8001b60:	79fa      	ldrb	r2, [r7, #7]
 8001b62:	492a      	ldr	r1, [pc, #168]	; (8001c0c <TimeExpired+0xc8>)
 8001b64:	4613      	mov	r3, r2
 8001b66:	005b      	lsls	r3, r3, #1
 8001b68:	4413      	add	r3, r2
 8001b6a:	00db      	lsls	r3, r3, #3
 8001b6c:	440b      	add	r3, r1
 8001b6e:	3310      	adds	r3, #16
 8001b70:	681b      	ldr	r3, [r3, #0]
 8001b72:	2b00      	cmp	r3, #0
 8001b74:	d102      	bne.n	8001b7c <TimeExpired+0x38>
 8001b76:	b662      	cpsie	i
 8001b78:	2300      	movs	r3, #0
 8001b7a:	e042      	b.n	8001c02 <TimeExpired+0xbe>
 8001b7c:	79fa      	ldrb	r2, [r7, #7]
 8001b7e:	4923      	ldr	r1, [pc, #140]	; (8001c0c <TimeExpired+0xc8>)
 8001b80:	4613      	mov	r3, r2
 8001b82:	005b      	lsls	r3, r3, #1
 8001b84:	4413      	add	r3, r2
 8001b86:	00db      	lsls	r3, r3, #3
 8001b88:	440b      	add	r3, r1
 8001b8a:	3304      	adds	r3, #4
 8001b8c:	681b      	ldr	r3, [r3, #0]
 8001b8e:	68ba      	ldr	r2, [r7, #8]
 8001b90:	429a      	cmp	r2, r3
 8001b92:	d30c      	bcc.n	8001bae <TimeExpired+0x6a>
 8001b94:	79fa      	ldrb	r2, [r7, #7]
 8001b96:	491d      	ldr	r1, [pc, #116]	; (8001c0c <TimeExpired+0xc8>)
 8001b98:	4613      	mov	r3, r2
 8001b9a:	005b      	lsls	r3, r3, #1
 8001b9c:	4413      	add	r3, r2
 8001b9e:	00db      	lsls	r3, r3, #3
 8001ba0:	440b      	add	r3, r1
 8001ba2:	3304      	adds	r3, #4
 8001ba4:	681b      	ldr	r3, [r3, #0]
 8001ba6:	68ba      	ldr	r2, [r7, #8]
 8001ba8:	1ad3      	subs	r3, r2, r3
 8001baa:	60fb      	str	r3, [r7, #12]
 8001bac:	e00e      	b.n	8001bcc <TimeExpired+0x88>
 8001bae:	79fa      	ldrb	r2, [r7, #7]
 8001bb0:	4916      	ldr	r1, [pc, #88]	; (8001c0c <TimeExpired+0xc8>)
 8001bb2:	4613      	mov	r3, r2
 8001bb4:	005b      	lsls	r3, r3, #1
 8001bb6:	4413      	add	r3, r2
 8001bb8:	00db      	lsls	r3, r3, #3
 8001bba:	440b      	add	r3, r1
 8001bbc:	3304      	adds	r3, #4
 8001bbe:	681a      	ldr	r2, [r3, #0]
 8001bc0:	68bb      	ldr	r3, [r7, #8]
 8001bc2:	1ad3      	subs	r3, r2, r3
 8001bc4:	60fb      	str	r3, [r7, #12]
 8001bc6:	68fb      	ldr	r3, [r7, #12]
 8001bc8:	43db      	mvns	r3, r3
 8001bca:	60fb      	str	r3, [r7, #12]
 8001bcc:	79fa      	ldrb	r2, [r7, #7]
 8001bce:	490f      	ldr	r1, [pc, #60]	; (8001c0c <TimeExpired+0xc8>)
 8001bd0:	4613      	mov	r3, r2
 8001bd2:	005b      	lsls	r3, r3, #1
 8001bd4:	4413      	add	r3, r2
 8001bd6:	00db      	lsls	r3, r3, #3
 8001bd8:	440b      	add	r3, r1
 8001bda:	3308      	adds	r3, #8
 8001bdc:	681b      	ldr	r3, [r3, #0]
 8001bde:	68fa      	ldr	r2, [r7, #12]
 8001be0:	429a      	cmp	r2, r3
 8001be2:	d202      	bcs.n	8001bea <TimeExpired+0xa6>
 8001be4:	b662      	cpsie	i
 8001be6:	2300      	movs	r3, #0
 8001be8:	e00b      	b.n	8001c02 <TimeExpired+0xbe>
 8001bea:	79fa      	ldrb	r2, [r7, #7]
 8001bec:	4907      	ldr	r1, [pc, #28]	; (8001c0c <TimeExpired+0xc8>)
 8001bee:	4613      	mov	r3, r2
 8001bf0:	005b      	lsls	r3, r3, #1
 8001bf2:	4413      	add	r3, r2
 8001bf4:	00db      	lsls	r3, r3, #3
 8001bf6:	440b      	add	r3, r1
 8001bf8:	3304      	adds	r3, #4
 8001bfa:	68ba      	ldr	r2, [r7, #8]
 8001bfc:	601a      	str	r2, [r3, #0]
 8001bfe:	b662      	cpsie	i
 8001c00:	2301      	movs	r3, #1
 8001c02:	4618      	mov	r0, r3
 8001c04:	3710      	adds	r7, #16
 8001c06:	46bd      	mov	sp, r7
 8001c08:	bd80      	pop	{r7, pc}
 8001c0a:	bf00      	nop
 8001c0c:	20000060 	.word	0x20000060

08001c10 <SysTick_Handler>:
 8001c10:	b480      	push	{r7}
 8001c12:	af00      	add	r7, sp, #0
 8001c14:	4b04      	ldr	r3, [pc, #16]	; (8001c28 <SysTick_Handler+0x18>)
 8001c16:	681b      	ldr	r3, [r3, #0]
 8001c18:	3301      	adds	r3, #1
 8001c1a:	4a03      	ldr	r2, [pc, #12]	; (8001c28 <SysTick_Handler+0x18>)
 8001c1c:	6013      	str	r3, [r2, #0]
 8001c1e:	bf00      	nop
 8001c20:	46bd      	mov	sp, r7
 8001c22:	f85d 7b04 	ldr.w	r7, [sp], #4
 8001c26:	4770      	bx	lr
 8001c28:	200001e0 	.word	0x200001e0

08001c2c <memsetl>:
 8001c2c:	b480      	push	{r7}
 8001c2e:	b083      	sub	sp, #12
 8001c30:	af00      	add	r7, sp, #0
 8001c32:	6078      	str	r0, [r7, #4]
 8001c34:	460b      	mov	r3, r1
 8001c36:	70fb      	strb	r3, [r7, #3]
 8001c38:	4613      	mov	r3, r2
 8001c3a:	803b      	strh	r3, [r7, #0]
 8001c3c:	e004      	b.n	8001c48 <memsetl+0x1c>
 8001c3e:	687b      	ldr	r3, [r7, #4]
 8001c40:	1c5a      	adds	r2, r3, #1
 8001c42:	607a      	str	r2, [r7, #4]
 8001c44:	78fa      	ldrb	r2, [r7, #3]
 8001c46:	701a      	strb	r2, [r3, #0]
 8001c48:	883b      	ldrh	r3, [r7, #0]
 8001c4a:	1e5a      	subs	r2, r3, #1
 8001c4c:	803a      	strh	r2, [r7, #0]
 8001c4e:	2b00      	cmp	r3, #0
 8001c50:	d1f5      	bne.n	8001c3e <memsetl+0x12>
 8001c52:	bf00      	nop
 8001c54:	370c      	adds	r7, #12
 8001c56:	46bd      	mov	sp, r7
 8001c58:	f85d 7b04 	ldr.w	r7, [sp], #4
 8001c5c:	4770      	bx	lr
	...

08001c60 <__libc_init_array>:
 8001c60:	b570      	push	{r4, r5, r6, lr}
 8001c62:	4d0d      	ldr	r5, [pc, #52]	; (8001c98 <__libc_init_array+0x38>)
 8001c64:	4c0d      	ldr	r4, [pc, #52]	; (8001c9c <__libc_init_array+0x3c>)
 8001c66:	1b64      	subs	r4, r4, r5
 8001c68:	10a4      	asrs	r4, r4, #2
 8001c6a:	2600      	movs	r6, #0
 8001c6c:	42a6      	cmp	r6, r4
 8001c6e:	d109      	bne.n	8001c84 <__libc_init_array+0x24>
 8001c70:	4d0b      	ldr	r5, [pc, #44]	; (8001ca0 <__libc_init_array+0x40>)
 8001c72:	4c0c      	ldr	r4, [pc, #48]	; (8001ca4 <__libc_init_array+0x44>)
 8001c74:	f000 f818 	bl	8001ca8 <_init>
 8001c78:	1b64      	subs	r4, r4, r5
 8001c7a:	10a4      	asrs	r4, r4, #2
 8001c7c:	2600      	movs	r6, #0
 8001c7e:	42a6      	cmp	r6, r4
 8001c80:	d105      	bne.n	8001c8e <__libc_init_array+0x2e>
 8001c82:	bd70      	pop	{r4, r5, r6, pc}
 8001c84:	f855 3b04 	ldr.w	r3, [r5], #4
 8001c88:	4798      	blx	r3
 8001c8a:	3601      	adds	r6, #1
 8001c8c:	e7ee      	b.n	8001c6c <__libc_init_array+0xc>
 8001c8e:	f855 3b04 	ldr.w	r3, [r5], #4
 8001c92:	4798      	blx	r3
 8001c94:	3601      	adds	r6, #1
 8001c96:	e7f2      	b.n	8001c7e <__libc_init_array+0x1e>
 8001c98:	08001cc0 	.word	0x08001cc0
 8001c9c:	08001cc0 	.word	0x08001cc0
 8001ca0:	08001cc0 	.word	0x08001cc0
 8001ca4:	08001cc4 	.word	0x08001cc4

08001ca8 <_init>:
 8001ca8:	b5f8      	push	{r3, r4, r5, r6, r7, lr}
 8001caa:	bf00      	nop
 8001cac:	bcf8      	pop	{r3, r4, r5, r6, r7}
 8001cae:	bc08      	pop	{r3}
 8001cb0:	469e      	mov	lr, r3
 8001cb2:	4770      	bx	lr

08001cb4 <_fini>:
 8001cb4:	b5f8      	push	{r3, r4, r5, r6, r7, lr}
 8001cb6:	bf00      	nop
 8001cb8:	bcf8      	pop	{r3, r4, r5, r6, r7}
 8001cba:	bc08      	pop	{r3}
 8001cbc:	469e      	mov	lr, r3
 8001cbe:	4770      	bx	lr
